; ModuleID = '/net/e/floupias001/FRACTALE/fractale/Fractale-It/fractale_hls/solution1/.autopilot/db/a.o.2.bc'
target datalayout = "e-p:64:64:64-i1:8:8-i8:8:8-i16:16:16-i32:32:32-i64:64:64-f32:32:32-f64:64:64-v64:64:64-v128:128:128-a0:0:64-s0:64:64-f80:128:128-n8:16:32:64-S128"
target triple = "x86_64-unknown-linux-gnu"

@dimage_ssdm_thread_M_do_image = external global i1
@convergence_ssdm_thread_M_do_convergence = external global i1
@color = internal unnamed_addr constant [51 x i12] [i12 0, i12 2, i12 4, i12 6, i12 24, i12 25, i12 43, i12 60, i12 76, i12 93, i12 109, i12 382, i12 382, i12 398, i12 670, i12 685, i12 957, i12 973, i12 1228, i12 1244, i12 1499, i12 1771, i12 1770, i12 2025, i12 -1815, i12 956, i12 -1561, i12 -1305, i12 -1050, i12 -1051, i12 -811, i12 -556, i12 -572, i12 -317, i12 -333, i12 -350, i12 -110, i12 -127, i12 -143, i12 -416, i12 -432, i12 -704, i12 -976, i12 -1248, i12 -1520, i12 -2032, i12 1792, i12 1280, i12 512, i12 0, i12 0]
@p_str941 = private unnamed_addr constant [8 x i8] c"ap_fifo\00", align 1
@p_str916 = private unnamed_addr constant [15 x i8] c"__ssdm_reset__\00", align 1
@p_str9 = private unnamed_addr constant [6 x i8] c"reset\00", align 1
@p_str840 = private unnamed_addr constant [9 x i8] c"offset_Y\00", align 1
@p_str815 = private unnamed_addr constant [9 x i8] c"do_image\00", align 1
@p_str8 = private unnamed_addr constant [4 x i8] c"clk\00", align 1
@p_str739 = private unnamed_addr constant [9 x i8] c"offset_X\00", align 1
@p_str714 = private unnamed_addr constant [8 x i8] c"couleur\00", align 1
@p_str7 = private unnamed_addr constant [7 x i8] c"\22bool\22\00", align 1
@p_str638 = private unnamed_addr constant [8 x i8] c"\22float\22\00", align 1
@p_str613 = private unnamed_addr constant [14 x i8] c"\22sc_uint<12>\22\00", align 1
@p_str6 = private unnamed_addr constant [5 x i8] c"main\00", align 1
@p_str537 = private unnamed_addr constant [5 x i8] c"zoom\00", align 1
@p_str512 = private unnamed_addr constant [1 x i8] zeroinitializer, align 1
@p_str436 = private unnamed_addr constant [13 x i8] c"\22sc_uint<8>\22\00", align 1
@p_str411 = private unnamed_addr constant [8 x i8] c"ap_fifo\00", align 1
@p_str4 = private unnamed_addr constant [12 x i8] c"convergence\00", align 1
@p_str335 = private unnamed_addr constant [6 x i8] c"reset\00", align 1
@p_str32 = private unnamed_addr constant [12 x i8] c"convergence\00", align 1
@p_str31 = private unnamed_addr constant [6 x i8] c"out_y\00", align 1
@p_str30 = private unnamed_addr constant [6 x i8] c"out_x\00", align 1
@p_str3 = private unnamed_addr constant [6 x i8] c"reset\00", align 1
@p_str29 = private unnamed_addr constant [6 x i8] c"s_out\00", align 1
@p_str28 = private unnamed_addr constant [15 x i8] c"do_convergence\00", align 1
@p_str27 = private unnamed_addr constant [9 x i8] c"do_image\00", align 1
@p_str26 = private unnamed_addr constant [8 x i8] c"ap_fifo\00", align 1
@p_str25 = private unnamed_addr constant [12 x i8] c"sc_fifo_chn\00", align 1
@p_str24 = private unnamed_addr constant [1 x i8] zeroinitializer, align 1
@p_str234 = private unnamed_addr constant [4 x i8] c"clk\00", align 1
@p_str23 = private unnamed_addr constant [7 x i8] c"dimage\00", align 1
@p_str22 = private unnamed_addr constant [8 x i8] c"counter\00", align 1
@p_str210 = private unnamed_addr constant [4 x i8] c"clk\00", align 1
@p_str20 = private unnamed_addr constant [9 x i8] c"offset_Y\00", align 1
@p_str2 = private unnamed_addr constant [7 x i8] c"dimage\00", align 1
@p_str19 = private unnamed_addr constant [9 x i8] c"offset_X\00", align 1
@p_str18 = private unnamed_addr constant [8 x i8] c"\22float\22\00", align 1
@p_str17 = private unnamed_addr constant [5 x i8] c"zoom\00", align 1
@p_str16 = private unnamed_addr constant [13 x i8] c"\22sc_uint<8>\22\00", align 1
@p_str1547 = private unnamed_addr constant [15 x i8] c"do_convergence\00", align 1
@p_str15 = private unnamed_addr constant [8 x i8] c"couleur\00", align 1
@p_str1446 = private unnamed_addr constant [6 x i8] c"out_y\00", align 1
@p_str14 = private unnamed_addr constant [14 x i8] c"\22sc_uint<12>\22\00", align 1
@p_str1345 = private unnamed_addr constant [13 x i8] c"\22sc_uint<9>\22\00", align 1
@p_str133 = private unnamed_addr constant [7 x i8] c"\22bool\22\00", align 1
@p_str13 = private unnamed_addr constant [2 x i8] c"y\00", align 1
@p_str1244 = private unnamed_addr constant [6 x i8] c"out_x\00", align 1
@p_str12 = private unnamed_addr constant [13 x i8] c"\22sc_uint<9>\22\00", align 1
@p_str1143 = private unnamed_addr constant [14 x i8] c"\22sc_uint<10>\22\00", align 1
@p_str11 = private unnamed_addr constant [2 x i8] c"x\00", align 1
@p_str1042 = private unnamed_addr constant [1 x i8] zeroinitializer, align 1
@p_str10 = private unnamed_addr constant [14 x i8] c"\22sc_uint<10>\22\00", align 1
@p_str1 = private unnamed_addr constant [7 x i8] c"\22bool\22\00", align 1

define weak void @"main::main"(i1* %clk, i1* %reset, i10* %x, i9* %y, i12* %couleur, i8* %sc_fifo_chn_1, i8* %zoom, float* %offset_X, float* %offset_Y, i1* %clk_form, i1* %reset_form, i8* %zoom_form, float* %offset_X_form, float* %offset_Y_form, i8* %sc_fifo_chn_1_form3, i10* %x_form, i9* %y_form, i1* %clk_form1, i1* %reset_form2, i8* %sc_fifo_chn_1_form, i12* %couleur_form) noinline {
  call void (...)* @_ssdm_op_SpecInterface(i8* %sc_fifo_chn_1_form, [8 x i8]* @p_str26, i32 0, i32 0, [1 x i8]* @p_str24, i32 0, i32 0, [1 x i8]* @p_str24, [1 x i8]* @p_str24, [1 x i8]* @p_str24, i32 0, i32 0, i32 0, i32 0, [1 x i8]* @p_str24, [1 x i8]* @p_str24)
  call void (...)* @_ssdm_op_SpecInterface(i8* %sc_fifo_chn_1_form3, [8 x i8]* @p_str26, i32 0, i32 0, [1 x i8]* @p_str24, i32 0, i32 0, [1 x i8]* @p_str24, [1 x i8]* @p_str24, [1 x i8]* @p_str24, i32 0, i32 0, i32 0, i32 0, [1 x i8]* @p_str24, [1 x i8]* @p_str24)
  call void (...)* @_ssdm_op_SpecBitsMap(i1* %clk), !map !186
  call void (...)* @_ssdm_op_SpecBitsMap(i1* %reset), !map !190
  call void (...)* @_ssdm_op_SpecBitsMap(i10* %x), !map !194
  call void (...)* @_ssdm_op_SpecBitsMap(i9* %y), !map !198
  call void (...)* @_ssdm_op_SpecBitsMap(i12* %couleur), !map !202
  call void (...)* @_ssdm_op_SpecBitsMap(i8* %sc_fifo_chn_1), !map !206
  call void (...)* @_ssdm_op_SpecBitsMap(i8* %zoom), !map !210
  call void (...)* @_ssdm_op_SpecBitsMap(float* %offset_X), !map !214
  call void (...)* @_ssdm_op_SpecBitsMap(float* %offset_Y), !map !218
  call void (...)* @_ssdm_op_SpecBitsMap(i1* %clk_form), !map !222
  call void (...)* @_ssdm_op_SpecBitsMap(i1* %reset_form), !map !226
  call void (...)* @_ssdm_op_SpecBitsMap(i8* %zoom_form), !map !230
  call void (...)* @_ssdm_op_SpecBitsMap(float* %offset_X_form), !map !234
  call void (...)* @_ssdm_op_SpecBitsMap(float* %offset_Y_form), !map !238
  call void (...)* @_ssdm_op_SpecBitsMap(i8* %sc_fifo_chn_1_form3), !map !242
  call void (...)* @_ssdm_op_SpecBitsMap(i10* %x_form), !map !246
  call void (...)* @_ssdm_op_SpecBitsMap(i9* %y_form), !map !250
  call void (...)* @_ssdm_op_SpecBitsMap(i1* %clk_form1), !map !254
  call void (...)* @_ssdm_op_SpecBitsMap(i1* %reset_form2), !map !258
  call void (...)* @_ssdm_op_SpecBitsMap(i8* %sc_fifo_chn_1_form), !map !262
  call void (...)* @_ssdm_op_SpecBitsMap(i12* %couleur_form), !map !266
  call void @llvm.dbg.value(metadata !{i1* %clk}, i64 0, metadata !270), !dbg !3641
  call void @llvm.dbg.value(metadata !{i1* %reset}, i64 0, metadata !3642), !dbg !3641
  call void @llvm.dbg.value(metadata !{i10* %x}, i64 0, metadata !3643), !dbg !3641
  call void @llvm.dbg.value(metadata !{i9* %y}, i64 0, metadata !3663), !dbg !3641
  call void @llvm.dbg.value(metadata !{i12* %couleur}, i64 0, metadata !3683), !dbg !3641
  call void @llvm.dbg.value(metadata !{i8* %sc_fifo_chn_1}, i64 0, metadata !3703), !dbg !3641
  call void @llvm.dbg.value(metadata !{i8* %zoom}, i64 0, metadata !3715), !dbg !3641
  call void @llvm.dbg.value(metadata !{float* %offset_X}, i64 0, metadata !3724), !dbg !3641
  call void @llvm.dbg.value(metadata !{float* %offset_Y}, i64 0, metadata !3734), !dbg !3641
  call void @llvm.dbg.value(metadata !{i1* %clk_form}, i64 0, metadata !3735), !dbg !3641
  call void @llvm.dbg.value(metadata !{i1* %reset_form}, i64 0, metadata !3740), !dbg !3641
  call void @llvm.dbg.value(metadata !{i8* %zoom_form}, i64 0, metadata !3741), !dbg !3641
  call void @llvm.dbg.value(metadata !{float* %offset_X_form}, i64 0, metadata !3746), !dbg !3641
  call void @llvm.dbg.value(metadata !{float* %offset_Y_form}, i64 0, metadata !3751), !dbg !3641
  call void @llvm.dbg.value(metadata !{i8* %sc_fifo_chn_1_form3}, i64 0, metadata !3752), !dbg !3641
  call void @llvm.dbg.value(metadata !{i10* %x_form}, i64 0, metadata !3763), !dbg !3641
  call void @llvm.dbg.value(metadata !{i9* %y_form}, i64 0, metadata !3768), !dbg !3641
  call void @llvm.dbg.value(metadata !{i1* %clk_form1}, i64 0, metadata !3773), !dbg !3641
  call void @llvm.dbg.value(metadata !{i1* %reset_form2}, i64 0, metadata !3778), !dbg !3641
  call void @llvm.dbg.value(metadata !{i8* %sc_fifo_chn_1_form}, i64 0, metadata !3779), !dbg !3641
  call void @llvm.dbg.value(metadata !{i12* %couleur_form}, i64 0, metadata !3790), !dbg !3641
  call void @llvm.dbg.value(metadata !{i8* %sc_fifo_chn_1}, i64 0, metadata !3795), !dbg !3800
  call void @llvm.dbg.value(metadata !{i8* %sc_fifo_chn_1}, i64 0, metadata !3802), !dbg !3805
  call void (...)* @_ssdm_op_SpecChannel([1 x i8]* @p_str24, i32 1, [1 x i8]* @p_str24, [12 x i8]* @p_str25, i32 1, i32 1, i8* %sc_fifo_chn_1, i8* %sc_fifo_chn_1) nounwind, !dbg !3807
  call void (...)* @_ssdm_op_SpecInterface(i8* %sc_fifo_chn_1, [8 x i8]* @p_str26, i32 0, i32 0, [1 x i8]* @p_str24, i32 0, i32 0, [1 x i8]* @p_str24, [1 x i8]* @p_str24, [1 x i8]* @p_str24, i32 0, i32 0, i32 0, i32 0, [1 x i8]* @p_str24, [1 x i8]* @p_str24) nounwind, !dbg !3809
  call void @llvm.dbg.value(metadata !{i1* %clk_form}, i64 0, metadata !3810), !dbg !3815
  call void @llvm.dbg.value(metadata !{i1* %reset_form}, i64 0, metadata !3816), !dbg !3815
  call void @llvm.dbg.value(metadata !{i8* %zoom_form}, i64 0, metadata !3817), !dbg !3815
  call void @llvm.dbg.value(metadata !{float* %offset_X_form}, i64 0, metadata !3819), !dbg !3815
  call void @llvm.dbg.value(metadata !{float* %offset_Y_form}, i64 0, metadata !3821), !dbg !3815
  call void @llvm.dbg.value(metadata !{i8* %sc_fifo_chn_1_form3}, i64 0, metadata !3822), !dbg !3815
  call void @llvm.dbg.value(metadata !{i10* %x_form}, i64 0, metadata !3824), !dbg !3815
  call void @llvm.dbg.value(metadata !{i9* %y_form}, i64 0, metadata !3826), !dbg !3815
  call void @"convergence::convergence.1"(i1* %clk_form, i1* %reset_form, i8* %zoom_form, float* %offset_X_form, float* %offset_Y_form, i8* %sc_fifo_chn_1_form3, i10* %x_form, i9* %y_form), !dbg !3828
  call void @llvm.dbg.value(metadata !{i1* %clk_form1}, i64 0, metadata !3829), !dbg !3834
  call void @llvm.dbg.value(metadata !{i1* %reset_form2}, i64 0, metadata !3835), !dbg !3834
  call void @llvm.dbg.value(metadata !{i8* %sc_fifo_chn_1_form}, i64 0, metadata !3836), !dbg !3834
  call void @llvm.dbg.value(metadata !{i12* %couleur_form}, i64 0, metadata !3838), !dbg !3834
  call void @"dimage::dimage.1"(i1* %clk_form1, i1* %reset_form2, i8* %sc_fifo_chn_1_form, i12* %couleur_form), !dbg !3840
  call void (...)* @_ssdm_op_SpecTopModule([5 x i8]* @p_str6, [5 x i8]* @p_str6) nounwind, !dbg !3841
  call void (...)* @_ssdm_op_SpecPort([5 x i8]* @p_str6, i32 0, [7 x i8]* @p_str7, [4 x i8]* @p_str8, i32 0, i32 0, i1* %clk) nounwind, !dbg !3843
  call void (...)* @_ssdm_op_SpecPort([5 x i8]* @p_str6, i32 0, [7 x i8]* @p_str7, [6 x i8]* @p_str9, i32 0, i32 0, i1* %reset) nounwind, !dbg !3844
  call void (...)* @_ssdm_op_SpecPort([5 x i8]* @p_str6, i32 1, [14 x i8]* @p_str10, [2 x i8]* @p_str11, i32 0, i32 0, i10* %x) nounwind, !dbg !3845
  call void (...)* @_ssdm_op_SpecPort([5 x i8]* @p_str6, i32 1, [13 x i8]* @p_str12, [2 x i8]* @p_str13, i32 0, i32 0, i9* %y) nounwind, !dbg !3846
  call void (...)* @_ssdm_op_SpecPort([5 x i8]* @p_str6, i32 1, [14 x i8]* @p_str14, [8 x i8]* @p_str15, i32 0, i32 0, i12* %couleur) nounwind, !dbg !3847
  call void (...)* @_ssdm_op_SpecPort([5 x i8]* @p_str6, i32 0, [13 x i8]* @p_str16, [5 x i8]* @p_str17, i32 0, i32 0, i8* %zoom) nounwind, !dbg !3848
  call void (...)* @_ssdm_op_SpecPort([5 x i8]* @p_str6, i32 0, [8 x i8]* @p_str18, [9 x i8]* @p_str19, i32 0, i32 0, float* %offset_X) nounwind, !dbg !3849
  call void (...)* @_ssdm_op_SpecPort([5 x i8]* @p_str6, i32 0, [8 x i8]* @p_str18, [9 x i8]* @p_str20, i32 0, i32 0, float* %offset_Y) nounwind, !dbg !3850
  call void @llvm.dbg.value(metadata !{i1* %clk_form}, i64 0, metadata !3851), !dbg !3856
  call void @llvm.dbg.value(metadata !{i1* %clk_form}, i64 0, metadata !3858), !dbg !3861
  call void @llvm.dbg.value(metadata !{i1* %clk_form}, i64 0, metadata !3864), !dbg !3867
  call void @llvm.dbg.value(metadata !{i1* %clk}, i64 0, metadata !3870), !dbg !3873
  call void (...)* @_ssdm_op_SpecPortMap(i1* %clk_form, i1* %clk) nounwind, !dbg !3874
  call void @llvm.dbg.value(metadata !{i1* %clk_form1}, i64 0, metadata !3851), !dbg !3876
  call void @llvm.dbg.value(metadata !{i1* %clk_form1}, i64 0, metadata !3858), !dbg !3878
  call void @llvm.dbg.value(metadata !{i1* %clk_form1}, i64 0, metadata !3864), !dbg !3880
  call void (...)* @_ssdm_op_SpecPortMap(i1* %clk_form1, i1* %clk) nounwind, !dbg !3882
  call void @llvm.dbg.value(metadata !{i1* %reset_form}, i64 0, metadata !3851), !dbg !3883
  call void @llvm.dbg.value(metadata !{i1* %reset_form}, i64 0, metadata !3858), !dbg !3885
  call void @llvm.dbg.value(metadata !{i1* %reset_form}, i64 0, metadata !3864), !dbg !3887
  call void @llvm.dbg.value(metadata !{i1* %reset}, i64 0, metadata !3870), !dbg !3889
  call void (...)* @_ssdm_op_SpecPortMap(i1* %reset_form, i1* %reset) nounwind, !dbg !3890
  call void @llvm.dbg.value(metadata !{i1* %reset_form2}, i64 0, metadata !3851), !dbg !3891
  call void @llvm.dbg.value(metadata !{i1* %reset_form2}, i64 0, metadata !3858), !dbg !3893
  call void @llvm.dbg.value(metadata !{i1* %reset_form2}, i64 0, metadata !3864), !dbg !3895
  call void (...)* @_ssdm_op_SpecPortMap(i1* %reset_form2, i1* %reset) nounwind, !dbg !3897
  call void @llvm.dbg.value(metadata !{i8* %sc_fifo_chn_1_form}, i64 0, metadata !3898), !dbg !3903
  call void @llvm.dbg.value(metadata !{i8* %sc_fifo_chn_1_form}, i64 0, metadata !3905), !dbg !3908
  call void (...)* @_ssdm_op_SpecPortMap(i8* %sc_fifo_chn_1_form, i8* %sc_fifo_chn_1) nounwind, !dbg !3911
  call void @llvm.dbg.value(metadata !{i12* %couleur_form}, i64 0, metadata !3913), !dbg !3918
  call void @llvm.dbg.value(metadata !{i12* %couleur_form}, i64 0, metadata !3920), !dbg !3923
  call void @llvm.dbg.value(metadata !{i12* %couleur_form}, i64 0, metadata !3926), !dbg !3929
  call void @llvm.dbg.value(metadata !{i12* %couleur}, i64 0, metadata !3932), !dbg !3935
  call void (...)* @_ssdm_op_SpecPortMap(i12* %couleur_form, i12* %couleur) nounwind, !dbg !3936
  call void @llvm.dbg.value(metadata !{i8* %zoom_form}, i64 0, metadata !3938), !dbg !3943
  call void @llvm.dbg.value(metadata !{i8* %zoom_form}, i64 0, metadata !3945), !dbg !3948
  call void @llvm.dbg.value(metadata !{i8* %zoom_form}, i64 0, metadata !3951), !dbg !3954
  call void @llvm.dbg.value(metadata !{i8* %zoom}, i64 0, metadata !3957), !dbg !3960
  call void (...)* @_ssdm_op_SpecPortMap(i8* %zoom_form, i8* %zoom) nounwind, !dbg !3961
  call void @llvm.dbg.value(metadata !{float* %offset_X_form}, i64 0, metadata !3963), !dbg !3968
  call void @llvm.dbg.value(metadata !{float* %offset_X_form}, i64 0, metadata !3970), !dbg !3973
  call void @llvm.dbg.value(metadata !{float* %offset_X_form}, i64 0, metadata !3976), !dbg !3979
  call void @llvm.dbg.value(metadata !{float* %offset_X}, i64 0, metadata !3982), !dbg !3985
  call void (...)* @_ssdm_op_SpecPortMap(float* %offset_X_form, float* %offset_X) nounwind, !dbg !3986
  call void @llvm.dbg.value(metadata !{float* %offset_Y_form}, i64 0, metadata !3963), !dbg !3988
  call void @llvm.dbg.value(metadata !{float* %offset_Y_form}, i64 0, metadata !3970), !dbg !3990
  call void @llvm.dbg.value(metadata !{float* %offset_Y_form}, i64 0, metadata !3976), !dbg !3992
  call void @llvm.dbg.value(metadata !{float* %offset_Y}, i64 0, metadata !3982), !dbg !3994
  call void (...)* @_ssdm_op_SpecPortMap(float* %offset_Y_form, float* %offset_Y) nounwind, !dbg !3995
  call void @llvm.dbg.value(metadata !{i8* %sc_fifo_chn_1_form3}, i64 0, metadata !3996), !dbg !4001
  call void @llvm.dbg.value(metadata !{i8* %sc_fifo_chn_1_form3}, i64 0, metadata !4003), !dbg !4006
  call void (...)* @_ssdm_op_SpecPortMap(i8* %sc_fifo_chn_1_form3, i8* %sc_fifo_chn_1) nounwind, !dbg !4009
  call void @llvm.dbg.value(metadata !{i10* %x_form}, i64 0, metadata !4011), !dbg !4016
  call void @llvm.dbg.value(metadata !{i10* %x_form}, i64 0, metadata !4018), !dbg !4021
  call void @llvm.dbg.value(metadata !{i10* %x_form}, i64 0, metadata !4024), !dbg !4027
  call void @llvm.dbg.value(metadata !{i10* %x}, i64 0, metadata !4030), !dbg !4033
  call void (...)* @_ssdm_op_SpecPortMap(i10* %x_form, i10* %x) nounwind, !dbg !4034
  call void @llvm.dbg.value(metadata !{i9* %y_form}, i64 0, metadata !4036), !dbg !4041
  call void @llvm.dbg.value(metadata !{i9* %y_form}, i64 0, metadata !4043), !dbg !4046
  call void @llvm.dbg.value(metadata !{i9* %y_form}, i64 0, metadata !4049), !dbg !4052
  call void @llvm.dbg.value(metadata !{i9* %y}, i64 0, metadata !4055), !dbg !4058
  call void (...)* @_ssdm_op_SpecPortMap(i9* %y_form, i9* %y) nounwind, !dbg !4059
  ret void, !dbg !4061
}

declare void @llvm.dbg.value(metadata, i64, metadata) nounwind readnone

define void @"dimage::do_image"(i1* %clk, i1* %reset, i8* %counter, i12* %couleur) noinline {
  call void (...)* @_ssdm_op_SpecBitsMap(i1* %clk), !map !4062
  call void (...)* @_ssdm_op_SpecBitsMap(i1* %reset), !map !4066
  call void (...)* @_ssdm_op_SpecBitsMap(i8* %counter), !map !4070
  call void (...)* @_ssdm_op_SpecBitsMap(i12* %couleur), !map !4074
  call void @llvm.dbg.value(metadata !{i1* %clk}, i64 0, metadata !4078), !dbg !5325
  call void @llvm.dbg.value(metadata !{i1* %reset}, i64 0, metadata !5326), !dbg !5325
  call void @llvm.dbg.value(metadata !{i8* %counter}, i64 0, metadata !5327), !dbg !5325
  call void @llvm.dbg.value(metadata !{i12* %couleur}, i64 0, metadata !5343), !dbg !5325
  call void (...)* @_ssdm_op_SpecPort([7 x i8]* @p_str2, i32 0, [7 x i8]* @p_str1, [4 x i8]* @p_str210, i32 0, i32 0, i1* %clk) nounwind, !dbg !5363
  call void (...)* @_ssdm_op_SpecPort([7 x i8]* @p_str2, i32 0, [7 x i8]* @p_str1, [6 x i8]* @p_str3, i32 0, i32 0, i1* %reset) nounwind, !dbg !5365
  call void (...)* @_ssdm_op_SpecInterface(i8* %counter, [8 x i8]* @p_str411, i32 0, i32 0, [1 x i8]* @p_str512, i32 0, i32 0, [1 x i8]* @p_str512, [1 x i8]* @p_str512, [1 x i8]* @p_str512, i32 0, i32 0, i32 0, i32 0, [1 x i8]* @p_str512, [1 x i8]* @p_str512) nounwind, !dbg !5366
  call void (...)* @_ssdm_op_SpecPort([7 x i8]* @p_str2, i32 1, [14 x i8]* @p_str613, [8 x i8]* @p_str714, i32 0, i32 0, i12* %couleur) nounwind, !dbg !5367
  call void (...)* @_ssdm_op_SpecProcessDef([7 x i8]* @p_str2, i32 2, [9 x i8]* @p_str815) nounwind, !dbg !5368
  %tmp_1 = call i32 (...)* @_ssdm_op_SpecRegionBegin([15 x i8]* @p_str916), !dbg !5369
  call void (...)* @_ssdm_op_SpecProtocol(i32 1, [1 x i8]* @p_str512) nounwind, !dbg !5370
  %p_ssdm_reset_v_0 = call i32 (...)* @_ssdm_op_SpecStateBegin(i32 0, i32 0, i32 1) nounwind, !dbg !5371
  call void @llvm.dbg.value(metadata !{i32 %p_ssdm_reset_v_0}, i64 0, metadata !5372), !dbg !5371
  %val_V = call i8 @_ssdm_op_Read.ap_fifo.volatile.i8P(i8* %counter), !dbg !5373
  call void @llvm.dbg.value(metadata !{i8 %val_V}, i64 0, metadata !5392), !dbg !5373
  %tmp = zext i8 %val_V to i64, !dbg !5391
  %color_addr = getelementptr [51 x i12]* @color, i64 0, i64 %tmp, !dbg !5394
  %v_V = load i12* %color_addr, align 2, !dbg !5394
  call void @llvm.dbg.value(metadata !{i12 %v_V}, i64 0, metadata !5404), !dbg !5394
  call void @_ssdm_op_Write.ap_auto.volatile.i12P(i12* %couleur, i12 %v_V), !dbg !5406
  %empty = call i32 (...)* @_ssdm_op_SpecRegionEnd([15 x i8]* @p_str916, i32 %tmp_1)
  ret void, !dbg !5419
}

define weak void @"dimage::dimage.1"(i1* %clk, i1* %reset, i8* %counter, i12* %couleur) noinline {
  call void (...)* @_ssdm_op_SpecBitsMap(i1* %clk), !map !4062
  call void (...)* @_ssdm_op_SpecBitsMap(i1* %reset), !map !4066
  call void (...)* @_ssdm_op_SpecBitsMap(i8* %counter), !map !4070
  call void (...)* @_ssdm_op_SpecBitsMap(i12* %couleur), !map !4074
  call void @llvm.dbg.value(metadata !{i1* %clk}, i64 0, metadata !5420), !dbg !5423
  call void @llvm.dbg.value(metadata !{i1* %reset}, i64 0, metadata !5424), !dbg !5423
  call void @llvm.dbg.value(metadata !{i8* %counter}, i64 0, metadata !5425), !dbg !5423
  call void @llvm.dbg.value(metadata !{i12* %couleur}, i64 0, metadata !5426), !dbg !5423
  call void @llvm.dbg.value(metadata !{i8* %counter}, i64 0, metadata !5427), !dbg !5433
  call void @llvm.dbg.value(metadata !{i8* %counter}, i64 0, metadata !5434), !dbg !5438
  call void @llvm.dbg.value(metadata !{i8* %counter}, i64 0, metadata !5439), !dbg !5446
  call void @llvm.dbg.value(metadata !{i8* %counter}, i64 0, metadata !5447), !dbg !5451
  call void (...)* @_ssdm_op_SpecInterface(i8* %counter, [8 x i8]* @p_str26, i32 0, i32 0, [1 x i8]* @p_str24, i32 0, i32 0, [1 x i8]* @p_str24, [1 x i8]* @p_str24, [1 x i8]* @p_str24, i32 0, i32 0, i32 0, i32 0, [1 x i8]* @p_str24, [1 x i8]* @p_str24) nounwind, !dbg !5452
  call void (...)* @_ssdm_op_SpecPort([1 x i8]* @p_str24, i32 4, [1 x i8]* @p_str24, [1 x i8]* @p_str24, i32 0, i32 0, i8* %counter) nounwind, !dbg !5454
  call void (...)* @_ssdm_op_SpecTopModule([7 x i8]* @p_str23, [7 x i8]* @p_str23) nounwind, !dbg !5455
  %dimage_ssdm_threa = load i1* @dimage_ssdm_thread_M_do_image, align 1, !dbg !5457
  br i1 %dimage_ssdm_threa, label %1, label %._crit_edge, !dbg !5457

; <label>:1                                       ; preds = %0
  call void @"dimage::do_image"(i1* %clk, i1* %reset, i8* %counter, i12* %couleur), !dbg !5458
  br label %._crit_edge, !dbg !5458

._crit_edge:                                      ; preds = %1, %0
  call void (...)* @_ssdm_op_SpecProcessDecl([7 x i8]* @p_str23, i32 2, [9 x i8]* @p_str27) nounwind, !dbg !5459
  call void (...)* @_ssdm_op_SpecSensitive([9 x i8]* @p_str27, [4 x i8]* @p_str8, i1* %clk, i32 1) nounwind, !dbg !5460
  call void (...)* @_ssdm_op_SpecSensitive([9 x i8]* @p_str27, [6 x i8]* @p_str9, i1* %reset, i32 3) nounwind, !dbg !5461
  call void (...)* @_ssdm_op_SpecPort([7 x i8]* @p_str23, i32 0, [7 x i8]* @p_str7, [4 x i8]* @p_str8, i32 0, i32 0, i1* %clk) nounwind, !dbg !5462
  call void (...)* @_ssdm_op_SpecPort([7 x i8]* @p_str23, i32 0, [7 x i8]* @p_str7, [6 x i8]* @p_str9, i32 0, i32 0, i1* %reset) nounwind, !dbg !5463
  call void (...)* @_ssdm_op_SpecInterface(i8* %counter, [8 x i8]* @p_str26, i32 0, i32 0, [1 x i8]* @p_str24, i32 0, i32 0, [1 x i8]* @p_str24, [1 x i8]* @p_str24, [1 x i8]* @p_str24, i32 0, i32 0, i32 0, i32 0, [1 x i8]* @p_str24, [1 x i8]* @p_str24) nounwind, !dbg !5464
  call void (...)* @_ssdm_op_SpecPort([7 x i8]* @p_str23, i32 4, [13 x i8]* @p_str16, [8 x i8]* @p_str22, i32 0, i32 0, i8* %counter) nounwind, !dbg !5465
  call void (...)* @_ssdm_op_SpecPort([7 x i8]* @p_str23, i32 1, [14 x i8]* @p_str14, [8 x i8]* @p_str15, i32 0, i32 0, i12* %couleur) nounwind, !dbg !5466
  ret void, !dbg !5467
}

define void @"convergence::do_convergence"(i1* %clk, i1* %reset, i8* %zoom, float* %offset_X, float* %offset_Y, i8* %s_out, i10* %out_x, i9* %out_y) noinline {
  call void (...)* @_ssdm_op_SpecBitsMap(i1* %clk), !map !5468
  call void (...)* @_ssdm_op_SpecBitsMap(i1* %reset), !map !5472
  call void (...)* @_ssdm_op_SpecBitsMap(i8* %zoom), !map !5476
  call void (...)* @_ssdm_op_SpecBitsMap(float* %offset_X), !map !5480
  call void (...)* @_ssdm_op_SpecBitsMap(float* %offset_Y), !map !5484
  call void (...)* @_ssdm_op_SpecBitsMap(i8* %s_out), !map !5488
  call void (...)* @_ssdm_op_SpecBitsMap(i10* %out_x), !map !5492
  call void (...)* @_ssdm_op_SpecBitsMap(i9* %out_y), !map !5496
  call void @llvm.dbg.value(metadata !{i1* %clk}, i64 0, metadata !5500), !dbg !8137
  call void @llvm.dbg.value(metadata !{i1* %reset}, i64 0, metadata !8138), !dbg !8137
  call void @llvm.dbg.value(metadata !{i8* %zoom}, i64 0, metadata !8139), !dbg !8137
  call void @llvm.dbg.value(metadata !{float* %offset_X}, i64 0, metadata !8155), !dbg !8137
  call void @llvm.dbg.value(metadata !{float* %offset_Y}, i64 0, metadata !8165), !dbg !8137
  call void @llvm.dbg.value(metadata !{i8* %s_out}, i64 0, metadata !8166), !dbg !8137
  call void @llvm.dbg.value(metadata !{i10* %out_x}, i64 0, metadata !8175), !dbg !8137
  call void @llvm.dbg.value(metadata !{i9* %out_y}, i64 0, metadata !8195), !dbg !8137
  call void (...)* @_ssdm_op_SpecPort([12 x i8]* @p_str32, i32 0, [7 x i8]* @p_str133, [4 x i8]* @p_str234, i32 0, i32 0, i1* %clk) nounwind, !dbg !8215
  call void (...)* @_ssdm_op_SpecPort([12 x i8]* @p_str32, i32 0, [7 x i8]* @p_str133, [6 x i8]* @p_str335, i32 0, i32 0, i1* %reset) nounwind, !dbg !8217
  call void (...)* @_ssdm_op_SpecPort([12 x i8]* @p_str32, i32 0, [13 x i8]* @p_str436, [5 x i8]* @p_str537, i32 0, i32 0, i8* %zoom) nounwind, !dbg !8218
  call void (...)* @_ssdm_op_SpecPort([12 x i8]* @p_str32, i32 0, [8 x i8]* @p_str638, [9 x i8]* @p_str739, i32 0, i32 0, float* %offset_X) nounwind, !dbg !8219
  call void (...)* @_ssdm_op_SpecPort([12 x i8]* @p_str32, i32 0, [8 x i8]* @p_str638, [9 x i8]* @p_str840, i32 0, i32 0, float* %offset_Y) nounwind, !dbg !8220
  call void (...)* @_ssdm_op_SpecInterface(i8* %s_out, [8 x i8]* @p_str941, i32 0, i32 0, [1 x i8]* @p_str1042, i32 0, i32 0, [1 x i8]* @p_str1042, [1 x i8]* @p_str1042, [1 x i8]* @p_str1042, i32 0, i32 0, i32 0, i32 0, [1 x i8]* @p_str1042, [1 x i8]* @p_str1042) nounwind, !dbg !8221
  call void (...)* @_ssdm_op_SpecPort([12 x i8]* @p_str32, i32 1, [14 x i8]* @p_str1143, [6 x i8]* @p_str1244, i32 0, i32 0, i10* %out_x) nounwind, !dbg !8222
  call void (...)* @_ssdm_op_SpecPort([12 x i8]* @p_str32, i32 1, [13 x i8]* @p_str1345, [6 x i8]* @p_str1446, i32 0, i32 0, i9* %out_y) nounwind, !dbg !8223
  call void (...)* @_ssdm_op_SpecProcessDef([12 x i8]* @p_str32, i32 2, [15 x i8]* @p_str1547) nounwind, !dbg !8224
  call void (...)* @_ssdm_op_SpecProtocol(i32 1, [1 x i8]* @p_str1042) nounwind, !dbg !8225
  %p_ssdm_reset_v_0 = call i32 (...)* @_ssdm_op_SpecStateBegin(i32 0, i32 0, i32 1) nounwind, !dbg !8226
  call void @llvm.dbg.value(metadata !{i32 %p_ssdm_reset_v_0}, i64 0, metadata !8227), !dbg !8226
  %p_020_0_0 = call i8 @_ssdm_op_Read.ap_auto.volatile.i8P(i8* %zoom), !dbg !8228
  call void @llvm.dbg.value(metadata !{float* %offset_Y}, i64 0, metadata !8239), !dbg !8246
  %empty = call float @_ssdm_op_Read.ap_auto.volatile.floatP(float* %offset_Y), !dbg !8254
  call void @llvm.dbg.value(metadata !{float %empty}, i64 0, metadata !8256), !dbg !8254
  call void @llvm.dbg.value(metadata !{float* %offset_X}, i64 0, metadata !8239), !dbg !8257
  %empty_3 = call float @_ssdm_op_Read.ap_auto.volatile.floatP(float* %offset_X), !dbg !8261
  call void @llvm.dbg.value(metadata !{float %empty_3}, i64 0, metadata !8256), !dbg !8261
  call void @_ssdm_op_Write.ap_fifo.volatile.i8P(i8* %s_out, i8 49), !dbg !8262
  call void @_ssdm_op_Write.ap_auto.volatile.i10P(i10* %out_x, i10 0), !dbg !8282
  call void @_ssdm_op_Write.ap_auto.volatile.i9P(i9* %out_y, i9 0), !dbg !8305
  call void @_ssdm_op_Write.ap_fifo.volatile.i8P(i8* %s_out, i8 49), !dbg !8262
  call void @_ssdm_op_Write.ap_auto.volatile.i10P(i10* %out_x, i10 1), !dbg !8282
  call void @_ssdm_op_Write.ap_auto.volatile.i9P(i9* %out_y, i9 0), !dbg !8305
  call void @_ssdm_op_Write.ap_fifo.volatile.i8P(i8* %s_out, i8 49), !dbg !8262
  call void @_ssdm_op_Write.ap_auto.volatile.i10P(i10* %out_x, i10 2), !dbg !8282
  call void @_ssdm_op_Write.ap_auto.volatile.i9P(i9* %out_y, i9 0), !dbg !8305
  call void @_ssdm_op_Write.ap_fifo.volatile.i8P(i8* %s_out, i8 49), !dbg !8262
  call void @_ssdm_op_Write.ap_auto.volatile.i10P(i10* %out_x, i10 3), !dbg !8282
  call void @_ssdm_op_Write.ap_auto.volatile.i9P(i9* %out_y, i9 0), !dbg !8305
  call void @_ssdm_op_Write.ap_fifo.volatile.i8P(i8* %s_out, i8 49), !dbg !8262
  call void @_ssdm_op_Write.ap_auto.volatile.i10P(i10* %out_x, i10 4), !dbg !8282
  call void @_ssdm_op_Write.ap_auto.volatile.i9P(i9* %out_y, i9 0), !dbg !8305
  call void @_ssdm_op_Write.ap_fifo.volatile.i8P(i8* %s_out, i8 49), !dbg !8262
  call void @_ssdm_op_Write.ap_auto.volatile.i10P(i10* %out_x, i10 5), !dbg !8282
  call void @_ssdm_op_Write.ap_auto.volatile.i9P(i9* %out_y, i9 0), !dbg !8305
  call void @_ssdm_op_Write.ap_fifo.volatile.i8P(i8* %s_out, i8 49), !dbg !8262
  call void @_ssdm_op_Write.ap_auto.volatile.i10P(i10* %out_x, i10 6), !dbg !8282
  call void @_ssdm_op_Write.ap_auto.volatile.i9P(i9* %out_y, i9 0), !dbg !8305
  call void @_ssdm_op_Write.ap_fifo.volatile.i8P(i8* %s_out, i8 49), !dbg !8262
  call void @_ssdm_op_Write.ap_auto.volatile.i10P(i10* %out_x, i10 7), !dbg !8282
  call void @_ssdm_op_Write.ap_auto.volatile.i9P(i9* %out_y, i9 0), !dbg !8305
  call void @_ssdm_op_Write.ap_fifo.volatile.i8P(i8* %s_out, i8 49), !dbg !8262
  call void @_ssdm_op_Write.ap_auto.volatile.i10P(i10* %out_x, i10 8), !dbg !8282
  call void @_ssdm_op_Write.ap_auto.volatile.i9P(i9* %out_y, i9 0), !dbg !8305
  call void @_ssdm_op_Write.ap_fifo.volatile.i8P(i8* %s_out, i8 49), !dbg !8262
  call void @_ssdm_op_Write.ap_auto.volatile.i10P(i10* %out_x, i10 9), !dbg !8282
  call void @_ssdm_op_Write.ap_auto.volatile.i9P(i9* %out_y, i9 0), !dbg !8305
  %p_020_0_1 = call i8 @_ssdm_op_Read.ap_auto.volatile.i8P(i8* %zoom), !dbg !8228
  %empty_4 = call float @_ssdm_op_Read.ap_auto.volatile.floatP(float* %offset_Y), !dbg !8254
  call void @llvm.dbg.value(metadata !{float %empty_4}, i64 0, metadata !8256), !dbg !8254
  %empty_5 = call float @_ssdm_op_Read.ap_auto.volatile.floatP(float* %offset_X), !dbg !8261
  call void @llvm.dbg.value(metadata !{float %empty_5}, i64 0, metadata !8256), !dbg !8261
  call void @_ssdm_op_Write.ap_fifo.volatile.i8P(i8* %s_out, i8 49), !dbg !8262
  call void @_ssdm_op_Write.ap_auto.volatile.i10P(i10* %out_x, i10 0), !dbg !8282
  call void @_ssdm_op_Write.ap_auto.volatile.i9P(i9* %out_y, i9 1), !dbg !8305
  call void @_ssdm_op_Write.ap_fifo.volatile.i8P(i8* %s_out, i8 49), !dbg !8262
  call void @_ssdm_op_Write.ap_auto.volatile.i10P(i10* %out_x, i10 1), !dbg !8282
  call void @_ssdm_op_Write.ap_auto.volatile.i9P(i9* %out_y, i9 1), !dbg !8305
  call void @_ssdm_op_Write.ap_fifo.volatile.i8P(i8* %s_out, i8 49), !dbg !8262
  call void @_ssdm_op_Write.ap_auto.volatile.i10P(i10* %out_x, i10 2), !dbg !8282
  call void @_ssdm_op_Write.ap_auto.volatile.i9P(i9* %out_y, i9 1), !dbg !8305
  call void @_ssdm_op_Write.ap_fifo.volatile.i8P(i8* %s_out, i8 49), !dbg !8262
  call void @_ssdm_op_Write.ap_auto.volatile.i10P(i10* %out_x, i10 3), !dbg !8282
  call void @_ssdm_op_Write.ap_auto.volatile.i9P(i9* %out_y, i9 1), !dbg !8305
  call void @_ssdm_op_Write.ap_fifo.volatile.i8P(i8* %s_out, i8 49), !dbg !8262
  call void @_ssdm_op_Write.ap_auto.volatile.i10P(i10* %out_x, i10 4), !dbg !8282
  call void @_ssdm_op_Write.ap_auto.volatile.i9P(i9* %out_y, i9 1), !dbg !8305
  call void @_ssdm_op_Write.ap_fifo.volatile.i8P(i8* %s_out, i8 49), !dbg !8262
  call void @_ssdm_op_Write.ap_auto.volatile.i10P(i10* %out_x, i10 5), !dbg !8282
  call void @_ssdm_op_Write.ap_auto.volatile.i9P(i9* %out_y, i9 1), !dbg !8305
  call void @_ssdm_op_Write.ap_fifo.volatile.i8P(i8* %s_out, i8 49), !dbg !8262
  call void @_ssdm_op_Write.ap_auto.volatile.i10P(i10* %out_x, i10 6), !dbg !8282
  call void @_ssdm_op_Write.ap_auto.volatile.i9P(i9* %out_y, i9 1), !dbg !8305
  call void @_ssdm_op_Write.ap_fifo.volatile.i8P(i8* %s_out, i8 49), !dbg !8262
  call void @_ssdm_op_Write.ap_auto.volatile.i10P(i10* %out_x, i10 7), !dbg !8282
  call void @_ssdm_op_Write.ap_auto.volatile.i9P(i9* %out_y, i9 1), !dbg !8305
  call void @_ssdm_op_Write.ap_fifo.volatile.i8P(i8* %s_out, i8 49), !dbg !8262
  call void @_ssdm_op_Write.ap_auto.volatile.i10P(i10* %out_x, i10 8), !dbg !8282
  call void @_ssdm_op_Write.ap_auto.volatile.i9P(i9* %out_y, i9 1), !dbg !8305
  call void @_ssdm_op_Write.ap_fifo.volatile.i8P(i8* %s_out, i8 49), !dbg !8262
  call void @_ssdm_op_Write.ap_auto.volatile.i10P(i10* %out_x, i10 9), !dbg !8282
  call void @_ssdm_op_Write.ap_auto.volatile.i9P(i9* %out_y, i9 1), !dbg !8305
  %p_020_0_2 = call i8 @_ssdm_op_Read.ap_auto.volatile.i8P(i8* %zoom), !dbg !8228
  %empty_6 = call float @_ssdm_op_Read.ap_auto.volatile.floatP(float* %offset_Y), !dbg !8254
  call void @llvm.dbg.value(metadata !{float %empty_6}, i64 0, metadata !8256), !dbg !8254
  %empty_7 = call float @_ssdm_op_Read.ap_auto.volatile.floatP(float* %offset_X), !dbg !8261
  call void @llvm.dbg.value(metadata !{float %empty_7}, i64 0, metadata !8256), !dbg !8261
  call void @_ssdm_op_Write.ap_fifo.volatile.i8P(i8* %s_out, i8 49), !dbg !8262
  call void @_ssdm_op_Write.ap_auto.volatile.i10P(i10* %out_x, i10 0), !dbg !8282
  call void @_ssdm_op_Write.ap_auto.volatile.i9P(i9* %out_y, i9 2), !dbg !8305
  call void @_ssdm_op_Write.ap_fifo.volatile.i8P(i8* %s_out, i8 49), !dbg !8262
  call void @_ssdm_op_Write.ap_auto.volatile.i10P(i10* %out_x, i10 1), !dbg !8282
  call void @_ssdm_op_Write.ap_auto.volatile.i9P(i9* %out_y, i9 2), !dbg !8305
  call void @_ssdm_op_Write.ap_fifo.volatile.i8P(i8* %s_out, i8 49), !dbg !8262
  call void @_ssdm_op_Write.ap_auto.volatile.i10P(i10* %out_x, i10 2), !dbg !8282
  call void @_ssdm_op_Write.ap_auto.volatile.i9P(i9* %out_y, i9 2), !dbg !8305
  call void @_ssdm_op_Write.ap_fifo.volatile.i8P(i8* %s_out, i8 49), !dbg !8262
  call void @_ssdm_op_Write.ap_auto.volatile.i10P(i10* %out_x, i10 3), !dbg !8282
  call void @_ssdm_op_Write.ap_auto.volatile.i9P(i9* %out_y, i9 2), !dbg !8305
  call void @_ssdm_op_Write.ap_fifo.volatile.i8P(i8* %s_out, i8 49), !dbg !8262
  call void @_ssdm_op_Write.ap_auto.volatile.i10P(i10* %out_x, i10 4), !dbg !8282
  call void @_ssdm_op_Write.ap_auto.volatile.i9P(i9* %out_y, i9 2), !dbg !8305
  call void @_ssdm_op_Write.ap_fifo.volatile.i8P(i8* %s_out, i8 49), !dbg !8262
  call void @_ssdm_op_Write.ap_auto.volatile.i10P(i10* %out_x, i10 5), !dbg !8282
  call void @_ssdm_op_Write.ap_auto.volatile.i9P(i9* %out_y, i9 2), !dbg !8305
  call void @_ssdm_op_Write.ap_fifo.volatile.i8P(i8* %s_out, i8 49), !dbg !8262
  call void @_ssdm_op_Write.ap_auto.volatile.i10P(i10* %out_x, i10 6), !dbg !8282
  call void @_ssdm_op_Write.ap_auto.volatile.i9P(i9* %out_y, i9 2), !dbg !8305
  call void @_ssdm_op_Write.ap_fifo.volatile.i8P(i8* %s_out, i8 49), !dbg !8262
  call void @_ssdm_op_Write.ap_auto.volatile.i10P(i10* %out_x, i10 7), !dbg !8282
  call void @_ssdm_op_Write.ap_auto.volatile.i9P(i9* %out_y, i9 2), !dbg !8305
  call void @_ssdm_op_Write.ap_fifo.volatile.i8P(i8* %s_out, i8 49), !dbg !8262
  call void @_ssdm_op_Write.ap_auto.volatile.i10P(i10* %out_x, i10 8), !dbg !8282
  call void @_ssdm_op_Write.ap_auto.volatile.i9P(i9* %out_y, i9 2), !dbg !8305
  call void @_ssdm_op_Write.ap_fifo.volatile.i8P(i8* %s_out, i8 49), !dbg !8262
  call void @_ssdm_op_Write.ap_auto.volatile.i10P(i10* %out_x, i10 9), !dbg !8282
  call void @_ssdm_op_Write.ap_auto.volatile.i9P(i9* %out_y, i9 2), !dbg !8305
  %p_020_0_3 = call i8 @_ssdm_op_Read.ap_auto.volatile.i8P(i8* %zoom), !dbg !8228
  %empty_8 = call float @_ssdm_op_Read.ap_auto.volatile.floatP(float* %offset_Y), !dbg !8254
  call void @llvm.dbg.value(metadata !{float %empty_8}, i64 0, metadata !8256), !dbg !8254
  %empty_9 = call float @_ssdm_op_Read.ap_auto.volatile.floatP(float* %offset_X), !dbg !8261
  call void @llvm.dbg.value(metadata !{float %empty_9}, i64 0, metadata !8256), !dbg !8261
  call void @_ssdm_op_Write.ap_fifo.volatile.i8P(i8* %s_out, i8 49), !dbg !8262
  call void @_ssdm_op_Write.ap_auto.volatile.i10P(i10* %out_x, i10 0), !dbg !8282
  call void @_ssdm_op_Write.ap_auto.volatile.i9P(i9* %out_y, i9 3), !dbg !8305
  call void @_ssdm_op_Write.ap_fifo.volatile.i8P(i8* %s_out, i8 49), !dbg !8262
  call void @_ssdm_op_Write.ap_auto.volatile.i10P(i10* %out_x, i10 1), !dbg !8282
  call void @_ssdm_op_Write.ap_auto.volatile.i9P(i9* %out_y, i9 3), !dbg !8305
  call void @_ssdm_op_Write.ap_fifo.volatile.i8P(i8* %s_out, i8 49), !dbg !8262
  call void @_ssdm_op_Write.ap_auto.volatile.i10P(i10* %out_x, i10 2), !dbg !8282
  call void @_ssdm_op_Write.ap_auto.volatile.i9P(i9* %out_y, i9 3), !dbg !8305
  call void @_ssdm_op_Write.ap_fifo.volatile.i8P(i8* %s_out, i8 49), !dbg !8262
  call void @_ssdm_op_Write.ap_auto.volatile.i10P(i10* %out_x, i10 3), !dbg !8282
  call void @_ssdm_op_Write.ap_auto.volatile.i9P(i9* %out_y, i9 3), !dbg !8305
  call void @_ssdm_op_Write.ap_fifo.volatile.i8P(i8* %s_out, i8 49), !dbg !8262
  call void @_ssdm_op_Write.ap_auto.volatile.i10P(i10* %out_x, i10 4), !dbg !8282
  call void @_ssdm_op_Write.ap_auto.volatile.i9P(i9* %out_y, i9 3), !dbg !8305
  call void @_ssdm_op_Write.ap_fifo.volatile.i8P(i8* %s_out, i8 49), !dbg !8262
  call void @_ssdm_op_Write.ap_auto.volatile.i10P(i10* %out_x, i10 5), !dbg !8282
  call void @_ssdm_op_Write.ap_auto.volatile.i9P(i9* %out_y, i9 3), !dbg !8305
  call void @_ssdm_op_Write.ap_fifo.volatile.i8P(i8* %s_out, i8 49), !dbg !8262
  call void @_ssdm_op_Write.ap_auto.volatile.i10P(i10* %out_x, i10 6), !dbg !8282
  call void @_ssdm_op_Write.ap_auto.volatile.i9P(i9* %out_y, i9 3), !dbg !8305
  call void @_ssdm_op_Write.ap_fifo.volatile.i8P(i8* %s_out, i8 49), !dbg !8262
  call void @_ssdm_op_Write.ap_auto.volatile.i10P(i10* %out_x, i10 7), !dbg !8282
  call void @_ssdm_op_Write.ap_auto.volatile.i9P(i9* %out_y, i9 3), !dbg !8305
  call void @_ssdm_op_Write.ap_fifo.volatile.i8P(i8* %s_out, i8 49), !dbg !8262
  call void @_ssdm_op_Write.ap_auto.volatile.i10P(i10* %out_x, i10 8), !dbg !8282
  call void @_ssdm_op_Write.ap_auto.volatile.i9P(i9* %out_y, i9 3), !dbg !8305
  call void @_ssdm_op_Write.ap_fifo.volatile.i8P(i8* %s_out, i8 49), !dbg !8262
  call void @_ssdm_op_Write.ap_auto.volatile.i10P(i10* %out_x, i10 9), !dbg !8282
  call void @_ssdm_op_Write.ap_auto.volatile.i9P(i9* %out_y, i9 3), !dbg !8305
  %p_020_0_4 = call i8 @_ssdm_op_Read.ap_auto.volatile.i8P(i8* %zoom), !dbg !8228
  %empty_10 = call float @_ssdm_op_Read.ap_auto.volatile.floatP(float* %offset_Y), !dbg !8254
  call void @llvm.dbg.value(metadata !{float %empty_10}, i64 0, metadata !8256), !dbg !8254
  %empty_11 = call float @_ssdm_op_Read.ap_auto.volatile.floatP(float* %offset_X), !dbg !8261
  call void @llvm.dbg.value(metadata !{float %empty_11}, i64 0, metadata !8256), !dbg !8261
  call void @_ssdm_op_Write.ap_fifo.volatile.i8P(i8* %s_out, i8 49), !dbg !8262
  call void @_ssdm_op_Write.ap_auto.volatile.i10P(i10* %out_x, i10 0), !dbg !8282
  call void @_ssdm_op_Write.ap_auto.volatile.i9P(i9* %out_y, i9 4), !dbg !8305
  call void @_ssdm_op_Write.ap_fifo.volatile.i8P(i8* %s_out, i8 49), !dbg !8262
  call void @_ssdm_op_Write.ap_auto.volatile.i10P(i10* %out_x, i10 1), !dbg !8282
  call void @_ssdm_op_Write.ap_auto.volatile.i9P(i9* %out_y, i9 4), !dbg !8305
  call void @_ssdm_op_Write.ap_fifo.volatile.i8P(i8* %s_out, i8 49), !dbg !8262
  call void @_ssdm_op_Write.ap_auto.volatile.i10P(i10* %out_x, i10 2), !dbg !8282
  call void @_ssdm_op_Write.ap_auto.volatile.i9P(i9* %out_y, i9 4), !dbg !8305
  call void @_ssdm_op_Write.ap_fifo.volatile.i8P(i8* %s_out, i8 49), !dbg !8262
  call void @_ssdm_op_Write.ap_auto.volatile.i10P(i10* %out_x, i10 3), !dbg !8282
  call void @_ssdm_op_Write.ap_auto.volatile.i9P(i9* %out_y, i9 4), !dbg !8305
  call void @_ssdm_op_Write.ap_fifo.volatile.i8P(i8* %s_out, i8 49), !dbg !8262
  call void @_ssdm_op_Write.ap_auto.volatile.i10P(i10* %out_x, i10 4), !dbg !8282
  call void @_ssdm_op_Write.ap_auto.volatile.i9P(i9* %out_y, i9 4), !dbg !8305
  call void @_ssdm_op_Write.ap_fifo.volatile.i8P(i8* %s_out, i8 49), !dbg !8262
  call void @_ssdm_op_Write.ap_auto.volatile.i10P(i10* %out_x, i10 5), !dbg !8282
  call void @_ssdm_op_Write.ap_auto.volatile.i9P(i9* %out_y, i9 4), !dbg !8305
  call void @_ssdm_op_Write.ap_fifo.volatile.i8P(i8* %s_out, i8 49), !dbg !8262
  call void @_ssdm_op_Write.ap_auto.volatile.i10P(i10* %out_x, i10 6), !dbg !8282
  call void @_ssdm_op_Write.ap_auto.volatile.i9P(i9* %out_y, i9 4), !dbg !8305
  call void @_ssdm_op_Write.ap_fifo.volatile.i8P(i8* %s_out, i8 49), !dbg !8262
  call void @_ssdm_op_Write.ap_auto.volatile.i10P(i10* %out_x, i10 7), !dbg !8282
  call void @_ssdm_op_Write.ap_auto.volatile.i9P(i9* %out_y, i9 4), !dbg !8305
  call void @_ssdm_op_Write.ap_fifo.volatile.i8P(i8* %s_out, i8 49), !dbg !8262
  call void @_ssdm_op_Write.ap_auto.volatile.i10P(i10* %out_x, i10 8), !dbg !8282
  call void @_ssdm_op_Write.ap_auto.volatile.i9P(i9* %out_y, i9 4), !dbg !8305
  call void @_ssdm_op_Write.ap_fifo.volatile.i8P(i8* %s_out, i8 49), !dbg !8262
  call void @_ssdm_op_Write.ap_auto.volatile.i10P(i10* %out_x, i10 9), !dbg !8282
  call void @_ssdm_op_Write.ap_auto.volatile.i9P(i9* %out_y, i9 4), !dbg !8305
  %p_020_0_5 = call i8 @_ssdm_op_Read.ap_auto.volatile.i8P(i8* %zoom), !dbg !8228
  %empty_12 = call float @_ssdm_op_Read.ap_auto.volatile.floatP(float* %offset_Y), !dbg !8254
  call void @llvm.dbg.value(metadata !{float %empty_12}, i64 0, metadata !8256), !dbg !8254
  %empty_13 = call float @_ssdm_op_Read.ap_auto.volatile.floatP(float* %offset_X), !dbg !8261
  call void @llvm.dbg.value(metadata !{float %empty_13}, i64 0, metadata !8256), !dbg !8261
  call void @_ssdm_op_Write.ap_fifo.volatile.i8P(i8* %s_out, i8 49), !dbg !8262
  call void @_ssdm_op_Write.ap_auto.volatile.i10P(i10* %out_x, i10 0), !dbg !8282
  call void @_ssdm_op_Write.ap_auto.volatile.i9P(i9* %out_y, i9 5), !dbg !8305
  call void @_ssdm_op_Write.ap_fifo.volatile.i8P(i8* %s_out, i8 49), !dbg !8262
  call void @_ssdm_op_Write.ap_auto.volatile.i10P(i10* %out_x, i10 1), !dbg !8282
  call void @_ssdm_op_Write.ap_auto.volatile.i9P(i9* %out_y, i9 5), !dbg !8305
  call void @_ssdm_op_Write.ap_fifo.volatile.i8P(i8* %s_out, i8 49), !dbg !8262
  call void @_ssdm_op_Write.ap_auto.volatile.i10P(i10* %out_x, i10 2), !dbg !8282
  call void @_ssdm_op_Write.ap_auto.volatile.i9P(i9* %out_y, i9 5), !dbg !8305
  call void @_ssdm_op_Write.ap_fifo.volatile.i8P(i8* %s_out, i8 49), !dbg !8262
  call void @_ssdm_op_Write.ap_auto.volatile.i10P(i10* %out_x, i10 3), !dbg !8282
  call void @_ssdm_op_Write.ap_auto.volatile.i9P(i9* %out_y, i9 5), !dbg !8305
  call void @_ssdm_op_Write.ap_fifo.volatile.i8P(i8* %s_out, i8 49), !dbg !8262
  call void @_ssdm_op_Write.ap_auto.volatile.i10P(i10* %out_x, i10 4), !dbg !8282
  call void @_ssdm_op_Write.ap_auto.volatile.i9P(i9* %out_y, i9 5), !dbg !8305
  call void @_ssdm_op_Write.ap_fifo.volatile.i8P(i8* %s_out, i8 49), !dbg !8262
  call void @_ssdm_op_Write.ap_auto.volatile.i10P(i10* %out_x, i10 5), !dbg !8282
  call void @_ssdm_op_Write.ap_auto.volatile.i9P(i9* %out_y, i9 5), !dbg !8305
  call void @_ssdm_op_Write.ap_fifo.volatile.i8P(i8* %s_out, i8 49), !dbg !8262
  call void @_ssdm_op_Write.ap_auto.volatile.i10P(i10* %out_x, i10 6), !dbg !8282
  call void @_ssdm_op_Write.ap_auto.volatile.i9P(i9* %out_y, i9 5), !dbg !8305
  call void @_ssdm_op_Write.ap_fifo.volatile.i8P(i8* %s_out, i8 49), !dbg !8262
  call void @_ssdm_op_Write.ap_auto.volatile.i10P(i10* %out_x, i10 7), !dbg !8282
  call void @_ssdm_op_Write.ap_auto.volatile.i9P(i9* %out_y, i9 5), !dbg !8305
  call void @_ssdm_op_Write.ap_fifo.volatile.i8P(i8* %s_out, i8 49), !dbg !8262
  call void @_ssdm_op_Write.ap_auto.volatile.i10P(i10* %out_x, i10 8), !dbg !8282
  call void @_ssdm_op_Write.ap_auto.volatile.i9P(i9* %out_y, i9 5), !dbg !8305
  call void @_ssdm_op_Write.ap_fifo.volatile.i8P(i8* %s_out, i8 49), !dbg !8262
  call void @_ssdm_op_Write.ap_auto.volatile.i10P(i10* %out_x, i10 9), !dbg !8282
  call void @_ssdm_op_Write.ap_auto.volatile.i9P(i9* %out_y, i9 5), !dbg !8305
  %p_020_0_6 = call i8 @_ssdm_op_Read.ap_auto.volatile.i8P(i8* %zoom), !dbg !8228
  %empty_14 = call float @_ssdm_op_Read.ap_auto.volatile.floatP(float* %offset_Y), !dbg !8254
  call void @llvm.dbg.value(metadata !{float %empty_14}, i64 0, metadata !8256), !dbg !8254
  %empty_15 = call float @_ssdm_op_Read.ap_auto.volatile.floatP(float* %offset_X), !dbg !8261
  call void @llvm.dbg.value(metadata !{float %empty_15}, i64 0, metadata !8256), !dbg !8261
  call void @_ssdm_op_Write.ap_fifo.volatile.i8P(i8* %s_out, i8 49), !dbg !8262
  call void @_ssdm_op_Write.ap_auto.volatile.i10P(i10* %out_x, i10 0), !dbg !8282
  call void @_ssdm_op_Write.ap_auto.volatile.i9P(i9* %out_y, i9 6), !dbg !8305
  call void @_ssdm_op_Write.ap_fifo.volatile.i8P(i8* %s_out, i8 49), !dbg !8262
  call void @_ssdm_op_Write.ap_auto.volatile.i10P(i10* %out_x, i10 1), !dbg !8282
  call void @_ssdm_op_Write.ap_auto.volatile.i9P(i9* %out_y, i9 6), !dbg !8305
  call void @_ssdm_op_Write.ap_fifo.volatile.i8P(i8* %s_out, i8 49), !dbg !8262
  call void @_ssdm_op_Write.ap_auto.volatile.i10P(i10* %out_x, i10 2), !dbg !8282
  call void @_ssdm_op_Write.ap_auto.volatile.i9P(i9* %out_y, i9 6), !dbg !8305
  call void @_ssdm_op_Write.ap_fifo.volatile.i8P(i8* %s_out, i8 49), !dbg !8262
  call void @_ssdm_op_Write.ap_auto.volatile.i10P(i10* %out_x, i10 3), !dbg !8282
  call void @_ssdm_op_Write.ap_auto.volatile.i9P(i9* %out_y, i9 6), !dbg !8305
  call void @_ssdm_op_Write.ap_fifo.volatile.i8P(i8* %s_out, i8 49), !dbg !8262
  call void @_ssdm_op_Write.ap_auto.volatile.i10P(i10* %out_x, i10 4), !dbg !8282
  call void @_ssdm_op_Write.ap_auto.volatile.i9P(i9* %out_y, i9 6), !dbg !8305
  call void @_ssdm_op_Write.ap_fifo.volatile.i8P(i8* %s_out, i8 49), !dbg !8262
  call void @_ssdm_op_Write.ap_auto.volatile.i10P(i10* %out_x, i10 5), !dbg !8282
  call void @_ssdm_op_Write.ap_auto.volatile.i9P(i9* %out_y, i9 6), !dbg !8305
  call void @_ssdm_op_Write.ap_fifo.volatile.i8P(i8* %s_out, i8 49), !dbg !8262
  call void @_ssdm_op_Write.ap_auto.volatile.i10P(i10* %out_x, i10 6), !dbg !8282
  call void @_ssdm_op_Write.ap_auto.volatile.i9P(i9* %out_y, i9 6), !dbg !8305
  call void @_ssdm_op_Write.ap_fifo.volatile.i8P(i8* %s_out, i8 49), !dbg !8262
  call void @_ssdm_op_Write.ap_auto.volatile.i10P(i10* %out_x, i10 7), !dbg !8282
  call void @_ssdm_op_Write.ap_auto.volatile.i9P(i9* %out_y, i9 6), !dbg !8305
  call void @_ssdm_op_Write.ap_fifo.volatile.i8P(i8* %s_out, i8 49), !dbg !8262
  call void @_ssdm_op_Write.ap_auto.volatile.i10P(i10* %out_x, i10 8), !dbg !8282
  call void @_ssdm_op_Write.ap_auto.volatile.i9P(i9* %out_y, i9 6), !dbg !8305
  call void @_ssdm_op_Write.ap_fifo.volatile.i8P(i8* %s_out, i8 49), !dbg !8262
  call void @_ssdm_op_Write.ap_auto.volatile.i10P(i10* %out_x, i10 9), !dbg !8282
  call void @_ssdm_op_Write.ap_auto.volatile.i9P(i9* %out_y, i9 6), !dbg !8305
  %p_020_0_7 = call i8 @_ssdm_op_Read.ap_auto.volatile.i8P(i8* %zoom), !dbg !8228
  %empty_16 = call float @_ssdm_op_Read.ap_auto.volatile.floatP(float* %offset_Y), !dbg !8254
  call void @llvm.dbg.value(metadata !{float %empty_16}, i64 0, metadata !8256), !dbg !8254
  %empty_17 = call float @_ssdm_op_Read.ap_auto.volatile.floatP(float* %offset_X), !dbg !8261
  call void @llvm.dbg.value(metadata !{float %empty_17}, i64 0, metadata !8256), !dbg !8261
  call void @_ssdm_op_Write.ap_fifo.volatile.i8P(i8* %s_out, i8 49), !dbg !8262
  call void @_ssdm_op_Write.ap_auto.volatile.i10P(i10* %out_x, i10 0), !dbg !8282
  call void @_ssdm_op_Write.ap_auto.volatile.i9P(i9* %out_y, i9 7), !dbg !8305
  call void @_ssdm_op_Write.ap_fifo.volatile.i8P(i8* %s_out, i8 49), !dbg !8262
  call void @_ssdm_op_Write.ap_auto.volatile.i10P(i10* %out_x, i10 1), !dbg !8282
  call void @_ssdm_op_Write.ap_auto.volatile.i9P(i9* %out_y, i9 7), !dbg !8305
  call void @_ssdm_op_Write.ap_fifo.volatile.i8P(i8* %s_out, i8 49), !dbg !8262
  call void @_ssdm_op_Write.ap_auto.volatile.i10P(i10* %out_x, i10 2), !dbg !8282
  call void @_ssdm_op_Write.ap_auto.volatile.i9P(i9* %out_y, i9 7), !dbg !8305
  call void @_ssdm_op_Write.ap_fifo.volatile.i8P(i8* %s_out, i8 49), !dbg !8262
  call void @_ssdm_op_Write.ap_auto.volatile.i10P(i10* %out_x, i10 3), !dbg !8282
  call void @_ssdm_op_Write.ap_auto.volatile.i9P(i9* %out_y, i9 7), !dbg !8305
  call void @_ssdm_op_Write.ap_fifo.volatile.i8P(i8* %s_out, i8 49), !dbg !8262
  call void @_ssdm_op_Write.ap_auto.volatile.i10P(i10* %out_x, i10 4), !dbg !8282
  call void @_ssdm_op_Write.ap_auto.volatile.i9P(i9* %out_y, i9 7), !dbg !8305
  call void @_ssdm_op_Write.ap_fifo.volatile.i8P(i8* %s_out, i8 49), !dbg !8262
  call void @_ssdm_op_Write.ap_auto.volatile.i10P(i10* %out_x, i10 5), !dbg !8282
  call void @_ssdm_op_Write.ap_auto.volatile.i9P(i9* %out_y, i9 7), !dbg !8305
  call void @_ssdm_op_Write.ap_fifo.volatile.i8P(i8* %s_out, i8 49), !dbg !8262
  call void @_ssdm_op_Write.ap_auto.volatile.i10P(i10* %out_x, i10 6), !dbg !8282
  call void @_ssdm_op_Write.ap_auto.volatile.i9P(i9* %out_y, i9 7), !dbg !8305
  call void @_ssdm_op_Write.ap_fifo.volatile.i8P(i8* %s_out, i8 49), !dbg !8262
  call void @_ssdm_op_Write.ap_auto.volatile.i10P(i10* %out_x, i10 7), !dbg !8282
  call void @_ssdm_op_Write.ap_auto.volatile.i9P(i9* %out_y, i9 7), !dbg !8305
  call void @_ssdm_op_Write.ap_fifo.volatile.i8P(i8* %s_out, i8 49), !dbg !8262
  call void @_ssdm_op_Write.ap_auto.volatile.i10P(i10* %out_x, i10 8), !dbg !8282
  call void @_ssdm_op_Write.ap_auto.volatile.i9P(i9* %out_y, i9 7), !dbg !8305
  call void @_ssdm_op_Write.ap_fifo.volatile.i8P(i8* %s_out, i8 49), !dbg !8262
  call void @_ssdm_op_Write.ap_auto.volatile.i10P(i10* %out_x, i10 9), !dbg !8282
  call void @_ssdm_op_Write.ap_auto.volatile.i9P(i9* %out_y, i9 7), !dbg !8305
  %p_020_0_8 = call i8 @_ssdm_op_Read.ap_auto.volatile.i8P(i8* %zoom), !dbg !8228
  %empty_18 = call float @_ssdm_op_Read.ap_auto.volatile.floatP(float* %offset_Y), !dbg !8254
  call void @llvm.dbg.value(metadata !{float %empty_18}, i64 0, metadata !8256), !dbg !8254
  %empty_19 = call float @_ssdm_op_Read.ap_auto.volatile.floatP(float* %offset_X), !dbg !8261
  call void @llvm.dbg.value(metadata !{float %empty_19}, i64 0, metadata !8256), !dbg !8261
  call void @_ssdm_op_Write.ap_fifo.volatile.i8P(i8* %s_out, i8 49), !dbg !8262
  call void @_ssdm_op_Write.ap_auto.volatile.i10P(i10* %out_x, i10 0), !dbg !8282
  call void @_ssdm_op_Write.ap_auto.volatile.i9P(i9* %out_y, i9 8), !dbg !8305
  call void @_ssdm_op_Write.ap_fifo.volatile.i8P(i8* %s_out, i8 49), !dbg !8262
  call void @_ssdm_op_Write.ap_auto.volatile.i10P(i10* %out_x, i10 1), !dbg !8282
  call void @_ssdm_op_Write.ap_auto.volatile.i9P(i9* %out_y, i9 8), !dbg !8305
  call void @_ssdm_op_Write.ap_fifo.volatile.i8P(i8* %s_out, i8 49), !dbg !8262
  call void @_ssdm_op_Write.ap_auto.volatile.i10P(i10* %out_x, i10 2), !dbg !8282
  call void @_ssdm_op_Write.ap_auto.volatile.i9P(i9* %out_y, i9 8), !dbg !8305
  call void @_ssdm_op_Write.ap_fifo.volatile.i8P(i8* %s_out, i8 49), !dbg !8262
  call void @_ssdm_op_Write.ap_auto.volatile.i10P(i10* %out_x, i10 3), !dbg !8282
  call void @_ssdm_op_Write.ap_auto.volatile.i9P(i9* %out_y, i9 8), !dbg !8305
  call void @_ssdm_op_Write.ap_fifo.volatile.i8P(i8* %s_out, i8 49), !dbg !8262
  call void @_ssdm_op_Write.ap_auto.volatile.i10P(i10* %out_x, i10 4), !dbg !8282
  call void @_ssdm_op_Write.ap_auto.volatile.i9P(i9* %out_y, i9 8), !dbg !8305
  call void @_ssdm_op_Write.ap_fifo.volatile.i8P(i8* %s_out, i8 49), !dbg !8262
  call void @_ssdm_op_Write.ap_auto.volatile.i10P(i10* %out_x, i10 5), !dbg !8282
  call void @_ssdm_op_Write.ap_auto.volatile.i9P(i9* %out_y, i9 8), !dbg !8305
  call void @_ssdm_op_Write.ap_fifo.volatile.i8P(i8* %s_out, i8 49), !dbg !8262
  call void @_ssdm_op_Write.ap_auto.volatile.i10P(i10* %out_x, i10 6), !dbg !8282
  call void @_ssdm_op_Write.ap_auto.volatile.i9P(i9* %out_y, i9 8), !dbg !8305
  call void @_ssdm_op_Write.ap_fifo.volatile.i8P(i8* %s_out, i8 49), !dbg !8262
  call void @_ssdm_op_Write.ap_auto.volatile.i10P(i10* %out_x, i10 7), !dbg !8282
  call void @_ssdm_op_Write.ap_auto.volatile.i9P(i9* %out_y, i9 8), !dbg !8305
  call void @_ssdm_op_Write.ap_fifo.volatile.i8P(i8* %s_out, i8 49), !dbg !8262
  call void @_ssdm_op_Write.ap_auto.volatile.i10P(i10* %out_x, i10 8), !dbg !8282
  call void @_ssdm_op_Write.ap_auto.volatile.i9P(i9* %out_y, i9 8), !dbg !8305
  call void @_ssdm_op_Write.ap_fifo.volatile.i8P(i8* %s_out, i8 49), !dbg !8262
  call void @_ssdm_op_Write.ap_auto.volatile.i10P(i10* %out_x, i10 9), !dbg !8282
  call void @_ssdm_op_Write.ap_auto.volatile.i9P(i9* %out_y, i9 8), !dbg !8305
  %p_020_0_9 = call i8 @_ssdm_op_Read.ap_auto.volatile.i8P(i8* %zoom), !dbg !8228
  %empty_20 = call float @_ssdm_op_Read.ap_auto.volatile.floatP(float* %offset_Y), !dbg !8254
  call void @llvm.dbg.value(metadata !{float %empty_20}, i64 0, metadata !8256), !dbg !8254
  %empty_21 = call float @_ssdm_op_Read.ap_auto.volatile.floatP(float* %offset_X), !dbg !8261
  call void @llvm.dbg.value(metadata !{float %empty_21}, i64 0, metadata !8256), !dbg !8261
  call void @_ssdm_op_Write.ap_fifo.volatile.i8P(i8* %s_out, i8 49), !dbg !8262
  call void @_ssdm_op_Write.ap_auto.volatile.i10P(i10* %out_x, i10 0), !dbg !8282
  call void @_ssdm_op_Write.ap_auto.volatile.i9P(i9* %out_y, i9 9), !dbg !8305
  call void @_ssdm_op_Write.ap_fifo.volatile.i8P(i8* %s_out, i8 49), !dbg !8262
  call void @_ssdm_op_Write.ap_auto.volatile.i10P(i10* %out_x, i10 1), !dbg !8282
  call void @_ssdm_op_Write.ap_auto.volatile.i9P(i9* %out_y, i9 9), !dbg !8305
  call void @_ssdm_op_Write.ap_fifo.volatile.i8P(i8* %s_out, i8 49), !dbg !8262
  call void @_ssdm_op_Write.ap_auto.volatile.i10P(i10* %out_x, i10 2), !dbg !8282
  call void @_ssdm_op_Write.ap_auto.volatile.i9P(i9* %out_y, i9 9), !dbg !8305
  call void @_ssdm_op_Write.ap_fifo.volatile.i8P(i8* %s_out, i8 49), !dbg !8262
  call void @_ssdm_op_Write.ap_auto.volatile.i10P(i10* %out_x, i10 3), !dbg !8282
  call void @_ssdm_op_Write.ap_auto.volatile.i9P(i9* %out_y, i9 9), !dbg !8305
  call void @_ssdm_op_Write.ap_fifo.volatile.i8P(i8* %s_out, i8 49), !dbg !8262
  call void @_ssdm_op_Write.ap_auto.volatile.i10P(i10* %out_x, i10 4), !dbg !8282
  call void @_ssdm_op_Write.ap_auto.volatile.i9P(i9* %out_y, i9 9), !dbg !8305
  call void @_ssdm_op_Write.ap_fifo.volatile.i8P(i8* %s_out, i8 49), !dbg !8262
  call void @_ssdm_op_Write.ap_auto.volatile.i10P(i10* %out_x, i10 5), !dbg !8282
  call void @_ssdm_op_Write.ap_auto.volatile.i9P(i9* %out_y, i9 9), !dbg !8305
  call void @_ssdm_op_Write.ap_fifo.volatile.i8P(i8* %s_out, i8 49), !dbg !8262
  call void @_ssdm_op_Write.ap_auto.volatile.i10P(i10* %out_x, i10 6), !dbg !8282
  call void @_ssdm_op_Write.ap_auto.volatile.i9P(i9* %out_y, i9 9), !dbg !8305
  call void @_ssdm_op_Write.ap_fifo.volatile.i8P(i8* %s_out, i8 49), !dbg !8262
  call void @_ssdm_op_Write.ap_auto.volatile.i10P(i10* %out_x, i10 7), !dbg !8282
  call void @_ssdm_op_Write.ap_auto.volatile.i9P(i9* %out_y, i9 9), !dbg !8305
  call void @_ssdm_op_Write.ap_fifo.volatile.i8P(i8* %s_out, i8 49), !dbg !8262
  call void @_ssdm_op_Write.ap_auto.volatile.i10P(i10* %out_x, i10 8), !dbg !8282
  call void @_ssdm_op_Write.ap_auto.volatile.i9P(i9* %out_y, i9 9), !dbg !8305
  call void @_ssdm_op_Write.ap_fifo.volatile.i8P(i8* %s_out, i8 49), !dbg !8262
  call void @_ssdm_op_Write.ap_auto.volatile.i10P(i10* %out_x, i10 9), !dbg !8282
  call void @_ssdm_op_Write.ap_auto.volatile.i9P(i9* %out_y, i9 9), !dbg !8305
  ret void, !dbg !8328
}

define weak void @"convergence::convergence.1"(i1* %clk, i1* %reset, i8* %zoom, float* %offset_X, float* %offset_Y, i8* %s_out, i10* %out_x, i9* %out_y) noinline {
  call void (...)* @_ssdm_op_SpecBitsMap(i1* %clk), !map !5468
  call void (...)* @_ssdm_op_SpecBitsMap(i1* %reset), !map !5472
  call void (...)* @_ssdm_op_SpecBitsMap(i8* %zoom), !map !5476
  call void (...)* @_ssdm_op_SpecBitsMap(float* %offset_X), !map !5480
  call void (...)* @_ssdm_op_SpecBitsMap(float* %offset_Y), !map !5484
  call void (...)* @_ssdm_op_SpecBitsMap(i8* %s_out), !map !5488
  call void (...)* @_ssdm_op_SpecBitsMap(i10* %out_x), !map !5492
  call void (...)* @_ssdm_op_SpecBitsMap(i9* %out_y), !map !5496
  call void @llvm.dbg.value(metadata !{i1* %clk}, i64 0, metadata !8329), !dbg !8332
  call void @llvm.dbg.value(metadata !{i1* %reset}, i64 0, metadata !8333), !dbg !8332
  call void @llvm.dbg.value(metadata !{i8* %zoom}, i64 0, metadata !8334), !dbg !8332
  call void @llvm.dbg.value(metadata !{float* %offset_X}, i64 0, metadata !8335), !dbg !8332
  call void @llvm.dbg.value(metadata !{float* %offset_Y}, i64 0, metadata !8336), !dbg !8332
  call void @llvm.dbg.value(metadata !{i8* %s_out}, i64 0, metadata !8337), !dbg !8332
  call void @llvm.dbg.value(metadata !{i10* %out_x}, i64 0, metadata !8338), !dbg !8332
  call void @llvm.dbg.value(metadata !{i9* %out_y}, i64 0, metadata !8339), !dbg !8332
  call void @llvm.dbg.value(metadata !{i8* %s_out}, i64 0, metadata !8340), !dbg !8346
  call void @llvm.dbg.value(metadata !{i8* %s_out}, i64 0, metadata !8347), !dbg !8351
  call void @llvm.dbg.value(metadata !{i8* %s_out}, i64 0, metadata !8352), !dbg !8359
  call void @llvm.dbg.value(metadata !{i8* %s_out}, i64 0, metadata !8360), !dbg !8364
  call void (...)* @_ssdm_op_SpecInterface(i8* %s_out, [8 x i8]* @p_str26, i32 0, i32 0, [1 x i8]* @p_str24, i32 0, i32 0, [1 x i8]* @p_str24, [1 x i8]* @p_str24, [1 x i8]* @p_str24, i32 0, i32 0, i32 0, i32 0, [1 x i8]* @p_str24, [1 x i8]* @p_str24) nounwind, !dbg !8365
  call void (...)* @_ssdm_op_SpecPort([1 x i8]* @p_str24, i32 5, [1 x i8]* @p_str24, [1 x i8]* @p_str24, i32 0, i32 0, i8* %s_out) nounwind, !dbg !8367
  call void (...)* @_ssdm_op_SpecTopModule([12 x i8]* @p_str4, [12 x i8]* @p_str4) nounwind, !dbg !8368
  %convergence_ssdm_s = load i1* @convergence_ssdm_thread_M_do_convergence, align 1, !dbg !8370
  br i1 %convergence_ssdm_s, label %1, label %._crit_edge, !dbg !8370

; <label>:1                                       ; preds = %0
  call void @"convergence::do_convergence"(i1* %clk, i1* %reset, i8* %zoom, float* %offset_X, float* %offset_Y, i8* %s_out, i10* %out_x, i9* %out_y), !dbg !8371
  br label %._crit_edge, !dbg !8371

._crit_edge:                                      ; preds = %1, %0
  call void (...)* @_ssdm_op_SpecProcessDecl([12 x i8]* @p_str4, i32 2, [15 x i8]* @p_str28) nounwind, !dbg !8372
  call void (...)* @_ssdm_op_SpecSensitive([15 x i8]* @p_str28, [4 x i8]* @p_str8, i1* %clk, i32 1) nounwind, !dbg !8373
  call void (...)* @_ssdm_op_SpecSensitive([15 x i8]* @p_str28, [6 x i8]* @p_str9, i1* %reset, i32 3) nounwind, !dbg !8374
  call void (...)* @_ssdm_op_SpecPort([12 x i8]* @p_str4, i32 0, [7 x i8]* @p_str7, [4 x i8]* @p_str8, i32 0, i32 0, i1* %clk) nounwind, !dbg !8375
  call void (...)* @_ssdm_op_SpecPort([12 x i8]* @p_str4, i32 0, [7 x i8]* @p_str7, [6 x i8]* @p_str9, i32 0, i32 0, i1* %reset) nounwind, !dbg !8376
  call void (...)* @_ssdm_op_SpecPort([12 x i8]* @p_str4, i32 0, [13 x i8]* @p_str16, [5 x i8]* @p_str17, i32 0, i32 0, i8* %zoom) nounwind, !dbg !8377
  call void (...)* @_ssdm_op_SpecPort([12 x i8]* @p_str4, i32 0, [8 x i8]* @p_str18, [9 x i8]* @p_str19, i32 0, i32 0, float* %offset_X) nounwind, !dbg !8378
  call void (...)* @_ssdm_op_SpecPort([12 x i8]* @p_str4, i32 0, [8 x i8]* @p_str18, [9 x i8]* @p_str20, i32 0, i32 0, float* %offset_Y) nounwind, !dbg !8379
  call void (...)* @_ssdm_op_SpecInterface(i8* %s_out, [8 x i8]* @p_str26, i32 0, i32 0, [1 x i8]* @p_str24, i32 0, i32 0, [1 x i8]* @p_str24, [1 x i8]* @p_str24, [1 x i8]* @p_str24, i32 0, i32 0, i32 0, i32 0, [1 x i8]* @p_str24, [1 x i8]* @p_str24) nounwind, !dbg !8380
  call void (...)* @_ssdm_op_SpecPort([12 x i8]* @p_str4, i32 5, [13 x i8]* @p_str16, [6 x i8]* @p_str29, i32 0, i32 0, i8* %s_out) nounwind, !dbg !8381
  call void (...)* @_ssdm_op_SpecPort([12 x i8]* @p_str4, i32 1, [14 x i8]* @p_str10, [6 x i8]* @p_str30, i32 0, i32 0, i10* %out_x) nounwind, !dbg !8382
  call void (...)* @_ssdm_op_SpecPort([12 x i8]* @p_str4, i32 1, [13 x i8]* @p_str12, [6 x i8]* @p_str31, i32 0, i32 0, i9* %out_y) nounwind, !dbg !8383
  ret void, !dbg !8384
}

define weak void @_ssdm_op_Write.ap_fifo.volatile.i8P(i8*, i8) {
entry:
  %empty = call i8 @_autotb_FifoWrite_i8(i8* %0, i8 %1)
  ret void
}

define weak void @_ssdm_op_Write.ap_auto.volatile.i9P(i9*, i9) {
entry:
  store i9 %1, i9* %0
  ret void
}

define weak void @_ssdm_op_Write.ap_auto.volatile.i12P(i12*, i12) {
entry:
  store i12 %1, i12* %0
  ret void
}

define weak void @_ssdm_op_Write.ap_auto.volatile.i10P(i10*, i10) {
entry:
  store i10 %1, i10* %0
  ret void
}

define weak void @_ssdm_op_SpecTopModule(...) nounwind {
entry:
  ret void
}

define weak i32 @_ssdm_op_SpecStateBegin(...) nounwind {
entry:
  ret i32 0
}

define weak void @_ssdm_op_SpecSensitive(...) nounwind {
entry:
  ret void
}

define weak i32 @_ssdm_op_SpecRegionEnd(...) {
entry:
  ret i32 0
}

define weak i32 @_ssdm_op_SpecRegionBegin(...) {
entry:
  ret i32 0
}

define weak void @_ssdm_op_SpecProtocol(...) nounwind {
entry:
  ret void
}

define weak void @_ssdm_op_SpecProcessDef(...) nounwind {
entry:
  ret void
}

define weak void @_ssdm_op_SpecProcessDecl(...) nounwind {
entry:
  ret void
}

define weak void @_ssdm_op_SpecPortMap(...) nounwind {
entry:
  ret void
}

define weak void @_ssdm_op_SpecPort(...) nounwind {
entry:
  ret void
}

define weak void @_ssdm_op_SpecInterface(...) nounwind {
entry:
  ret void
}

define weak void @_ssdm_op_SpecChannel(...) nounwind {
entry:
  ret void
}

define weak void @_ssdm_op_SpecBitsMap(...) {
entry:
  ret void
}

define weak i8 @_ssdm_op_Read.ap_fifo.volatile.i8P(i8*) {
entry:
  %empty = call i8 @_autotb_FifoRead_i8(i8* %0)
  ret i8 %empty
}

define weak i8 @_ssdm_op_Read.ap_auto.volatile.i8P(i8*) {
entry:
  %empty = load i8* %0
  ret i8 %empty
}

define weak float @_ssdm_op_Read.ap_auto.volatile.floatP(float*) {
entry:
  %empty = load float* %0
  ret float %empty
}

declare i8 @_autotb_FifoWrite_i8(i8*, i8)

declare i8 @_autotb_FifoRead_i8(i8*)

!opencl.kernels = !{!0, !0, !7, !7, !10, !13, !13, !15, !17, !17, !20, !20, !22, !24, !24, !26, !28, !28, !30, !17, !17, !32, !32, !34, !36, !36, !36, !36, !36, !36, !36, !36, !36, !36, !36, !36, !36, !36, !36, !36, !42, !42, !36, !36, !36, !36, !36, !36, !36, !36, !36, !36, !36, !36, !36, !36, !36, !36, !36, !36, !36, !36, !36, !36, !36, !36, !36, !36, !36, !36, !36, !36, !36, !36, !36, !36, !36, !36, !36, !36, !0, !0, !36, !36, !36, !45, !45, !50, !50, !0, !0, !36, !36, !36, !45, !45, !36, !36, !36, !36, !51, !54, !36, !36, !36, !36, !57, !60, !62, !68, !36, !36, !36, !36, !69, !69, !70, !50, !50, !0, !0, !36, !36, !36, !36, !36, !36, !36, !36, !36, !36, !36, !36, !45, !45, !36, !36, !36, !36, !36, !36, !69, !69, !70, !36, !72, !74, !75, !77, !69, !69, !70, !36, !78, !80, !81, !83, !69, !69, !70, !36, !84, !86, !88, !90, !91, !36, !94, !70, !70, !36, !96, !36, !36, !36, !99, !99, !101, !101, !103, !36, !36, !36, !105, !36, !36, !51, !54, !36, !36, !36, !50, !50, !0, !0, !36, !36, !36, !36, !36, !36, !36, !36, !36, !36, !36, !36, !36, !36, !36, !36, !36, !36, !36, !36, !36, !36, !36, !36, !36, !45, !45, !36, !36, !36, !36, !36, !36, !36, !36, !36, !36, !36, !36, !36, !36, !36}
!hls.encrypted.func = !{}
!llvm.map.gv = !{!107, !114, !119, !124, !129, !134, !139, !144, !149, !154, !159, !164, !169, !176, !181}

!0 = metadata !{null, metadata !1, metadata !2, metadata !3, metadata !4, metadata !5, metadata !6}
!1 = metadata !{metadata !"kernel_arg_addr_space", i32 0}
!2 = metadata !{metadata !"kernel_arg_access_qual", metadata !"none"}
!3 = metadata !{metadata !"kernel_arg_type", metadata !"::sc_core::sc_module_name"}
!4 = metadata !{metadata !"kernel_arg_type_qual", metadata !""}
!5 = metadata !{metadata !"kernel_arg_name", metadata !""}
!6 = metadata !{metadata !"reqd_work_group_size", i32 1, i32 1, i32 1}
!7 = metadata !{null, metadata !1, metadata !2, metadata !8, metadata !4, metadata !9, metadata !6}
!8 = metadata !{metadata !"kernel_arg_type", metadata !"class _ap_sc_::sc_core::sc_port_b<class _ap_sc_::sc_core::sc_signal_inout_if<struct _ap_sc_::sc_dt::sc_uint<9> > > &"}
!9 = metadata !{metadata !"kernel_arg_name", metadata !"parent_"}
!10 = metadata !{null, metadata !1, metadata !2, metadata !11, metadata !4, metadata !12, metadata !6}
!11 = metadata !{metadata !"kernel_arg_type", metadata !"class _ap_sc_::sc_core::sc_signal_inout_if<struct _ap_sc_::sc_dt::sc_uint<9> > &"}
!12 = metadata !{metadata !"kernel_arg_name", metadata !"interface_"}
!13 = metadata !{null, metadata !1, metadata !2, metadata !14, metadata !4, metadata !9, metadata !6}
!14 = metadata !{metadata !"kernel_arg_type", metadata !"class _ap_sc_::sc_core::sc_port_b<class _ap_sc_::sc_core::sc_signal_inout_if<struct _ap_sc_::sc_dt::sc_uint<10> > > &"}
!15 = metadata !{null, metadata !1, metadata !2, metadata !16, metadata !4, metadata !12, metadata !6}
!16 = metadata !{metadata !"kernel_arg_type", metadata !"class _ap_sc_::sc_core::sc_signal_inout_if<struct _ap_sc_::sc_dt::sc_uint<10> > &"}
!17 = metadata !{null, metadata !1, metadata !2, metadata !18, metadata !4, metadata !19, metadata !6}
!18 = metadata !{metadata !"kernel_arg_type", metadata !"class _ap_sc_::sc_core::sc_prim_channel &"}
!19 = metadata !{metadata !"kernel_arg_name", metadata !"ic__"}
!20 = metadata !{null, metadata !1, metadata !2, metadata !21, metadata !4, metadata !9, metadata !6}
!21 = metadata !{metadata !"kernel_arg_type", metadata !"class _ap_sc_::sc_core::sc_port_b<class _ap_sc_::sc_core::sc_signal_in_if<float> > &"}
!22 = metadata !{null, metadata !1, metadata !2, metadata !23, metadata !4, metadata !12, metadata !6}
!23 = metadata !{metadata !"kernel_arg_type", metadata !"class _ap_sc_::sc_core::sc_signal_in_if<float> &"}
!24 = metadata !{null, metadata !1, metadata !2, metadata !25, metadata !4, metadata !9, metadata !6}
!25 = metadata !{metadata !"kernel_arg_type", metadata !"class _ap_sc_::sc_core::sc_port_b<class _ap_sc_::sc_core::sc_signal_in_if<struct _ap_sc_::sc_dt::sc_uint<8> > > &"}
!26 = metadata !{null, metadata !1, metadata !2, metadata !27, metadata !4, metadata !12, metadata !6}
!27 = metadata !{metadata !"kernel_arg_type", metadata !"class _ap_sc_::sc_core::sc_signal_in_if<struct _ap_sc_::sc_dt::sc_uint<8> > &"}
!28 = metadata !{null, metadata !1, metadata !2, metadata !29, metadata !4, metadata !9, metadata !6}
!29 = metadata !{metadata !"kernel_arg_type", metadata !"class _ap_sc_::sc_core::sc_port_b<class _ap_sc_::sc_core::sc_signal_inout_if<struct _ap_sc_::sc_dt::sc_uint<12> > > &"}
!30 = metadata !{null, metadata !1, metadata !2, metadata !31, metadata !4, metadata !12, metadata !6}
!31 = metadata !{metadata !"kernel_arg_type", metadata !"class _ap_sc_::sc_core::sc_signal_inout_if<struct _ap_sc_::sc_dt::sc_uint<12> > &"}
!32 = metadata !{null, metadata !1, metadata !2, metadata !33, metadata !4, metadata !9, metadata !6}
!33 = metadata !{metadata !"kernel_arg_type", metadata !"class _ap_sc_::sc_core::sc_port_b<class _ap_sc_::sc_core::sc_signal_in_if<_Bool> > &"}
!34 = metadata !{null, metadata !1, metadata !2, metadata !35, metadata !4, metadata !12, metadata !6}
!35 = metadata !{metadata !"kernel_arg_type", metadata !"class _ap_sc_::sc_core::sc_signal_in_if<_Bool> &"}
!36 = metadata !{null, metadata !37, metadata !38, metadata !39, metadata !40, metadata !41, metadata !6}
!37 = metadata !{metadata !"kernel_arg_addr_space"}
!38 = metadata !{metadata !"kernel_arg_access_qual"}
!39 = metadata !{metadata !"kernel_arg_type"}
!40 = metadata !{metadata !"kernel_arg_type_qual"}
!41 = metadata !{metadata !"kernel_arg_name"}
!42 = metadata !{null, metadata !1, metadata !2, metadata !43, metadata !4, metadata !44, metadata !6}
!43 = metadata !{metadata !"kernel_arg_type", metadata !"int"}
!44 = metadata !{metadata !"kernel_arg_name", metadata !"size_"}
!45 = metadata !{null, metadata !46, metadata !2, metadata !47, metadata !48, metadata !49, metadata !6}
!46 = metadata !{metadata !"kernel_arg_addr_space", i32 1}
!47 = metadata !{metadata !"kernel_arg_type", metadata !"char*"}
!48 = metadata !{metadata !"kernel_arg_type_qual", metadata !"const"}
!49 = metadata !{metadata !"kernel_arg_name", metadata !"name_"}
!50 = metadata !{null, metadata !46, metadata !2, metadata !47, metadata !48, metadata !5, metadata !6}
!51 = metadata !{null, metadata !1, metadata !2, metadata !52, metadata !4, metadata !53, metadata !6}
!52 = metadata !{metadata !"kernel_arg_type", metadata !"volatile sc_uint<8> &"}
!53 = metadata !{metadata !"kernel_arg_name", metadata !"P"}
!54 = metadata !{null, metadata !1, metadata !2, metadata !55, metadata !4, metadata !56, metadata !6}
!55 = metadata !{metadata !"kernel_arg_type", metadata !"const volatile struct _ap_sc_::sc_dt::sc_uint<8> &"}
!56 = metadata !{metadata !"kernel_arg_name", metadata !"op2"}
!57 = metadata !{null, metadata !1, metadata !2, metadata !58, metadata !4, metadata !59, metadata !6}
!58 = metadata !{metadata !"kernel_arg_type", metadata !"const struct _ap_sc_::sc_dt::sc_uint<12> &"}
!59 = metadata !{metadata !"kernel_arg_name", metadata !"v"}
!60 = metadata !{null, metadata !1, metadata !2, metadata !58, metadata !4, metadata !61, metadata !6}
!61 = metadata !{metadata !"kernel_arg_name", metadata !"v2"}
!62 = metadata !{null, metadata !63, metadata !64, metadata !65, metadata !66, metadata !67, metadata !6}
!63 = metadata !{metadata !"kernel_arg_addr_space", i32 0, i32 0}
!64 = metadata !{metadata !"kernel_arg_access_qual", metadata !"none", metadata !"none"}
!65 = metadata !{metadata !"kernel_arg_type", metadata !"volatile sc_uint<12> &", metadata !"const struct _ap_sc_::sc_dt::sc_uint<12> &"}
!66 = metadata !{metadata !"kernel_arg_type_qual", metadata !"", metadata !""}
!67 = metadata !{metadata !"kernel_arg_name", metadata !"P", metadata !"val"}
!68 = metadata !{null, metadata !1, metadata !2, metadata !58, metadata !4, metadata !56, metadata !6}
!69 = metadata !{null, metadata !1, metadata !2, metadata !43, metadata !4, metadata !59, metadata !6}
!70 = metadata !{null, metadata !1, metadata !2, metadata !43, metadata !4, metadata !71, metadata !6}
!71 = metadata !{metadata !"kernel_arg_name", metadata !"op"}
!72 = metadata !{null, metadata !1, metadata !2, metadata !73, metadata !4, metadata !59, metadata !6}
!73 = metadata !{metadata !"kernel_arg_type", metadata !"const struct _ap_sc_::sc_dt::sc_uint<9> &"}
!74 = metadata !{null, metadata !1, metadata !2, metadata !73, metadata !4, metadata !61, metadata !6}
!75 = metadata !{null, metadata !63, metadata !64, metadata !76, metadata !66, metadata !67, metadata !6}
!76 = metadata !{metadata !"kernel_arg_type", metadata !"volatile sc_uint<9> &", metadata !"const struct _ap_sc_::sc_dt::sc_uint<9> &"}
!77 = metadata !{null, metadata !1, metadata !2, metadata !73, metadata !4, metadata !56, metadata !6}
!78 = metadata !{null, metadata !1, metadata !2, metadata !79, metadata !4, metadata !59, metadata !6}
!79 = metadata !{metadata !"kernel_arg_type", metadata !"const struct _ap_sc_::sc_dt::sc_uint<10> &"}
!80 = metadata !{null, metadata !1, metadata !2, metadata !79, metadata !4, metadata !61, metadata !6}
!81 = metadata !{null, metadata !63, metadata !64, metadata !82, metadata !66, metadata !67, metadata !6}
!82 = metadata !{metadata !"kernel_arg_type", metadata !"volatile sc_uint<10> &", metadata !"const struct _ap_sc_::sc_dt::sc_uint<10> &"}
!83 = metadata !{null, metadata !1, metadata !2, metadata !79, metadata !4, metadata !56, metadata !6}
!84 = metadata !{null, metadata !1, metadata !2, metadata !85, metadata !4, metadata !59, metadata !6}
!85 = metadata !{metadata !"kernel_arg_type", metadata !"const struct _ap_sc_::sc_dt::sc_uint<8> &"}
!86 = metadata !{null, metadata !1, metadata !2, metadata !85, metadata !4, metadata !87, metadata !6}
!87 = metadata !{metadata !"kernel_arg_name", metadata !"t"}
!88 = metadata !{null, metadata !63, metadata !64, metadata !89, metadata !66, metadata !67, metadata !6}
!89 = metadata !{metadata !"kernel_arg_type", metadata !"volatile sc_uint<8> &", metadata !"const struct _ap_sc_::sc_dt::sc_uint<8> &"}
!90 = metadata !{null, metadata !1, metadata !2, metadata !85, metadata !4, metadata !56, metadata !6}
!91 = metadata !{null, metadata !63, metadata !64, metadata !92, metadata !66, metadata !93, metadata !6}
!92 = metadata !{metadata !"kernel_arg_type", metadata !"float", metadata !"const ap_int_base<40, true> &"}
!93 = metadata !{metadata !"kernel_arg_name", metadata !"i_op", metadata !"op"}
!94 = metadata !{null, metadata !63, metadata !64, metadata !95, metadata !66, metadata !93, metadata !6}
!95 = metadata !{metadata !"kernel_arg_type", metadata !"int", metadata !"const ap_int_base<8, false> &"}
!96 = metadata !{null, metadata !63, metadata !64, metadata !97, metadata !66, metadata !98, metadata !6}
!97 = metadata !{metadata !"kernel_arg_type", metadata !"const ap_int_base<32, true> &", metadata !"const ap_int_base<8, false> &"}
!98 = metadata !{metadata !"kernel_arg_name", metadata !"op", metadata !"op2"}
!99 = metadata !{null, metadata !1, metadata !2, metadata !100, metadata !4, metadata !71, metadata !6}
!100 = metadata !{metadata !"kernel_arg_type", metadata !"const ap_int_base<8, false> &"}
!101 = metadata !{null, metadata !1, metadata !2, metadata !102, metadata !4, metadata !71, metadata !6}
!102 = metadata !{metadata !"kernel_arg_type", metadata !"const ap_int_base<32, true> &"}
!103 = metadata !{null, metadata !63, metadata !64, metadata !104, metadata !66, metadata !93, metadata !6}
!104 = metadata !{metadata !"kernel_arg_type", metadata !"float", metadata !"const ap_int_base<8, false> &"}
!105 = metadata !{null, metadata !1, metadata !2, metadata !106, metadata !4, metadata !53, metadata !6}
!106 = metadata !{metadata !"kernel_arg_type", metadata !"volatile float &"}
!107 = metadata !{metadata !108, null}
!108 = metadata !{metadata !109}
!109 = metadata !{i32 0, i32 0, metadata !110}
!110 = metadata !{metadata !111}
!111 = metadata !{metadata !"ssdm_ins_dimage_1_0.reset.m_if.Val", metadata !112, metadata !"bool", i32 0, i32 0}
!112 = metadata !{metadata !113}
!113 = metadata !{i32 0, i32 0, i32 1}
!114 = metadata !{metadata !115, null}
!115 = metadata !{metadata !116}
!116 = metadata !{i32 0, i32 7, metadata !117}
!117 = metadata !{metadata !118}
!118 = metadata !{metadata !"ssdm_ins_dimage_1_0.counter.m_if.Val.V", metadata !112, metadata !"uint8", i32 0, i32 7}
!119 = metadata !{metadata !120, null}
!120 = metadata !{metadata !121}
!121 = metadata !{i32 0, i32 11, metadata !122}
!122 = metadata !{metadata !123}
!123 = metadata !{metadata !"ssdm_ins_dimage_1_0.couleur.m_if.Val.V", metadata !112, metadata !"uint12", i32 0, i32 11}
!124 = metadata !{metadata !125, null}
!125 = metadata !{metadata !126}
!126 = metadata !{i32 0, i32 0, metadata !127}
!127 = metadata !{metadata !128}
!128 = metadata !{metadata !"ssdm_ins_dimage_1_0.clk.m_if.Val", metadata !112, metadata !"bool", i32 0, i32 0}
!129 = metadata !{metadata !130, null}
!130 = metadata !{metadata !131}
!131 = metadata !{i32 0, i32 7, metadata !132}
!132 = metadata !{metadata !133}
!133 = metadata !{metadata !"ssdm_ins_convergence_2_0.zoom.m_if.Val.V", metadata !112, metadata !"uint8", i32 0, i32 7}
!134 = metadata !{metadata !135, null}
!135 = metadata !{metadata !136}
!136 = metadata !{i32 0, i32 7, metadata !137}
!137 = metadata !{metadata !138}
!138 = metadata !{metadata !"ssdm_ins_convergence_2_0.s_out.m_if.Val.V", metadata !112, metadata !"uint8", i32 0, i32 7}
!139 = metadata !{metadata !140, null}
!140 = metadata !{metadata !141}
!141 = metadata !{i32 0, i32 0, metadata !142}
!142 = metadata !{metadata !143}
!143 = metadata !{metadata !"ssdm_ins_convergence_2_0.reset.m_if.Val", metadata !112, metadata !"bool", i32 0, i32 0}
!144 = metadata !{metadata !145, null}
!145 = metadata !{metadata !146}
!146 = metadata !{i32 0, i32 8, metadata !147}
!147 = metadata !{metadata !148}
!148 = metadata !{metadata !"ssdm_ins_convergence_2_0.out_y.m_if.Val.V", metadata !112, metadata !"uint9", i32 0, i32 8}
!149 = metadata !{metadata !150, null}
!150 = metadata !{metadata !151}
!151 = metadata !{i32 0, i32 9, metadata !152}
!152 = metadata !{metadata !153}
!153 = metadata !{metadata !"ssdm_ins_convergence_2_0.out_x.m_if.Val.V", metadata !112, metadata !"uint10", i32 0, i32 9}
!154 = metadata !{metadata !155, null}
!155 = metadata !{metadata !156}
!156 = metadata !{i32 0, i32 31, metadata !157}
!157 = metadata !{metadata !158}
!158 = metadata !{metadata !"ssdm_ins_convergence_2_0.offset_Y.m_if.Val", metadata !112, metadata !"float", i32 0, i32 31}
!159 = metadata !{metadata !160, null}
!160 = metadata !{metadata !161}
!161 = metadata !{i32 0, i32 31, metadata !162}
!162 = metadata !{metadata !163}
!163 = metadata !{metadata !"ssdm_ins_convergence_2_0.offset_X.m_if.Val", metadata !112, metadata !"float", i32 0, i32 31}
!164 = metadata !{metadata !165, null}
!165 = metadata !{metadata !166}
!166 = metadata !{i32 0, i32 0, metadata !167}
!167 = metadata !{metadata !168}
!168 = metadata !{metadata !"ssdm_ins_convergence_2_0.clk.m_if.Val", metadata !112, metadata !"bool", i32 0, i32 0}
!169 = metadata !{metadata !170, null}
!170 = metadata !{metadata !171}
!171 = metadata !{i32 0, i32 31, metadata !172}
!172 = metadata !{metadata !173}
!173 = metadata !{metadata !"llvm.global_ctors.0", metadata !174, metadata !"", i32 0, i32 31}
!174 = metadata !{metadata !175}
!175 = metadata !{i32 0, i32 2, i32 1}
!176 = metadata !{metadata !177, i1* @dimage_ssdm_thread_M_do_image}
!177 = metadata !{metadata !178}
!178 = metadata !{i32 0, i32 0, metadata !179}
!179 = metadata !{metadata !180}
!180 = metadata !{metadata !"dimage::__ssdm_thread_M_do_image", metadata !112, metadata !"bool", i32 0, i32 0}
!181 = metadata !{metadata !182, i1* @convergence_ssdm_thread_M_do_convergence}
!182 = metadata !{metadata !183}
!183 = metadata !{i32 0, i32 0, metadata !184}
!184 = metadata !{metadata !185}
!185 = metadata !{metadata !"convergence::__ssdm_thread_M_do_convergence", metadata !112, metadata !"bool", i32 0, i32 0}
!186 = metadata !{metadata !187}
!187 = metadata !{i32 0, i32 0, metadata !188}
!188 = metadata !{metadata !189}
!189 = metadata !{metadata !"main.clk.m_if.Val", metadata !112, metadata !"bool", i32 0, i32 0}
!190 = metadata !{metadata !191}
!191 = metadata !{i32 0, i32 0, metadata !192}
!192 = metadata !{metadata !193}
!193 = metadata !{metadata !"main.reset.m_if.Val", metadata !112, metadata !"bool", i32 0, i32 0}
!194 = metadata !{metadata !195}
!195 = metadata !{i32 0, i32 9, metadata !196}
!196 = metadata !{metadata !197}
!197 = metadata !{metadata !"main.x.m_if.Val.V", metadata !112, metadata !"uint10", i32 0, i32 9}
!198 = metadata !{metadata !199}
!199 = metadata !{i32 0, i32 8, metadata !200}
!200 = metadata !{metadata !201}
!201 = metadata !{metadata !"main.y.m_if.Val.V", metadata !112, metadata !"uint9", i32 0, i32 8}
!202 = metadata !{metadata !203}
!203 = metadata !{i32 0, i32 11, metadata !204}
!204 = metadata !{metadata !205}
!205 = metadata !{metadata !"main.couleur.m_if.Val.V", metadata !112, metadata !"uint12", i32 0, i32 11}
!206 = metadata !{metadata !207}
!207 = metadata !{i32 0, i32 7, metadata !208}
!208 = metadata !{metadata !209}
!209 = metadata !{metadata !"main.counter.Val.V", metadata !112, metadata !"uint8", i32 0, i32 7}
!210 = metadata !{metadata !211}
!211 = metadata !{i32 0, i32 7, metadata !212}
!212 = metadata !{metadata !213}
!213 = metadata !{metadata !"main.zoom.m_if.Val.V", metadata !112, metadata !"uint8", i32 0, i32 7}
!214 = metadata !{metadata !215}
!215 = metadata !{i32 0, i32 31, metadata !216}
!216 = metadata !{metadata !217}
!217 = metadata !{metadata !"main.offset_X.m_if.Val", metadata !112, metadata !"float", i32 0, i32 31}
!218 = metadata !{metadata !219}
!219 = metadata !{i32 0, i32 31, metadata !220}
!220 = metadata !{metadata !221}
!221 = metadata !{metadata !"main.offset_Y.m_if.Val", metadata !112, metadata !"float", i32 0, i32 31}
!222 = metadata !{metadata !223}
!223 = metadata !{i32 0, i32 0, metadata !224}
!224 = metadata !{metadata !225}
!225 = metadata !{metadata !"main.convergence.clk.m_if.Val", metadata !112, metadata !"bool", i32 0, i32 0}
!226 = metadata !{metadata !227}
!227 = metadata !{i32 0, i32 0, metadata !228}
!228 = metadata !{metadata !229}
!229 = metadata !{metadata !"main.convergence.reset.m_if.Val", metadata !112, metadata !"bool", i32 0, i32 0}
!230 = metadata !{metadata !231}
!231 = metadata !{i32 0, i32 7, metadata !232}
!232 = metadata !{metadata !233}
!233 = metadata !{metadata !"main.convergence.zoom.m_if.Val.V", metadata !112, metadata !"uint8", i32 0, i32 7}
!234 = metadata !{metadata !235}
!235 = metadata !{i32 0, i32 31, metadata !236}
!236 = metadata !{metadata !237}
!237 = metadata !{metadata !"main.convergence.offset_X.m_if.Val", metadata !112, metadata !"float", i32 0, i32 31}
!238 = metadata !{metadata !239}
!239 = metadata !{i32 0, i32 31, metadata !240}
!240 = metadata !{metadata !241}
!241 = metadata !{metadata !"main.convergence.offset_Y.m_if.Val", metadata !112, metadata !"float", i32 0, i32 31}
!242 = metadata !{metadata !243}
!243 = metadata !{i32 0, i32 7, metadata !244}
!244 = metadata !{metadata !245}
!245 = metadata !{metadata !"main.convergence.s_out.m_if.Val.V", metadata !112, metadata !"uint8", i32 0, i32 7}
!246 = metadata !{metadata !247}
!247 = metadata !{i32 0, i32 9, metadata !248}
!248 = metadata !{metadata !249}
!249 = metadata !{metadata !"main.convergence.out_x.m_if.Val.V", metadata !112, metadata !"uint10", i32 0, i32 9}
!250 = metadata !{metadata !251}
!251 = metadata !{i32 0, i32 8, metadata !252}
!252 = metadata !{metadata !253}
!253 = metadata !{metadata !"main.convergence.out_y.m_if.Val.V", metadata !112, metadata !"uint9", i32 0, i32 8}
!254 = metadata !{metadata !255}
!255 = metadata !{i32 0, i32 0, metadata !256}
!256 = metadata !{metadata !257}
!257 = metadata !{metadata !"main.dimage.clk.m_if.Val", metadata !112, metadata !"bool", i32 0, i32 0}
!258 = metadata !{metadata !259}
!259 = metadata !{i32 0, i32 0, metadata !260}
!260 = metadata !{metadata !261}
!261 = metadata !{metadata !"main.dimage.reset.m_if.Val", metadata !112, metadata !"bool", i32 0, i32 0}
!262 = metadata !{metadata !263}
!263 = metadata !{i32 0, i32 7, metadata !264}
!264 = metadata !{metadata !265}
!265 = metadata !{metadata !"main.dimage.counter.m_if.Val.V", metadata !112, metadata !"uint8", i32 0, i32 7}
!266 = metadata !{metadata !267}
!267 = metadata !{i32 0, i32 11, metadata !268}
!268 = metadata !{metadata !269}
!269 = metadata !{metadata !"main.dimage.couleur.m_if.Val.V", metadata !112, metadata !"uint12", i32 0, i32 11}
!270 = metadata !{i32 790531, metadata !271, metadata !"main.clk.m_if.Val", null, i32 19, metadata !3632, i32 0, i32 0} ; [ DW_TAG_arg_variable_field ]
!271 = metadata !{i32 786689, metadata !272, metadata !"this", metadata !273, i32 16777235, metadata !3631, i32 64, i32 0} ; [ DW_TAG_arg_variable ]
!272 = metadata !{i32 786478, i32 0, null, metadata !"main", metadata !"main", metadata !"_ZN4mainC2EN7_ap_sc_7sc_core14sc_module_nameE", metadata !273, i32 19, metadata !274, i1 false, i1 true, i32 0, i32 0, null, i32 256, i1 false, null, null, metadata !3630, metadata !295, i32 22} ; [ DW_TAG_subprogram ]
!273 = metadata !{i32 786473, metadata !"fractale_hls/src/main.cpp", metadata !"/net/e/floupias001/FRACTALE/fractale/Fractale-It", null} ; [ DW_TAG_file_type ]
!274 = metadata !{i32 786453, i32 0, metadata !"", i32 0, i32 0, i64 0, i64 0, i64 0, i32 0, null, metadata !275, i32 0, i32 0} ; [ DW_TAG_subroutine_type ]
!275 = metadata !{null, metadata !276, metadata !3523}
!276 = metadata !{i32 786447, i32 0, metadata !"", i32 0, i32 0, i64 64, i64 64, i64 0, i32 64, metadata !277} ; [ DW_TAG_pointer_type ]
!277 = metadata !{i32 786434, null, metadata !"main", metadata !273, i32 8, i64 384, i64 32, i32 0, i32 0, null, metadata !278, i32 0, null, null} ; [ DW_TAG_class_type ]
!278 = metadata !{metadata !279, metadata !398, metadata !399, metadata !1684, metadata !2446, metadata !2891, metadata !3271, metadata !3352, metadata !3437, metadata !3438, metadata !3540, metadata !3630}
!279 = metadata !{i32 786445, metadata !277, metadata !"clk", metadata !273, i32 10, i64 8, i64 8, i64 0, i32 0, metadata !280} ; [ DW_TAG_member ]
!280 = metadata !{i32 786434, metadata !281, metadata !"sc_in<bool>", metadata !283, i32 357, i64 8, i64 8, i32 0, i32 0, null, metadata !284, i32 0, null, metadata !329} ; [ DW_TAG_class_type ]
!281 = metadata !{i32 786489, metadata !282, metadata !"sc_core", metadata !283, i32 163} ; [ DW_TAG_namespace ]
!282 = metadata !{i32 786489, null, metadata !"_ap_sc_", metadata !283, i32 160} ; [ DW_TAG_namespace ]
!283 = metadata !{i32 786473, metadata !"/opt/xilinx/vivado/2018.2/Vivado/2018.2/common/technology/autopilot/ap_sysc/ap_sc_core.h", metadata !"/net/e/floupias001/FRACTALE/fractale/Fractale-It", null} ; [ DW_TAG_file_type ]
!284 = metadata !{metadata !285, metadata !364, metadata !372, metadata !373, metadata !377, metadata !380, metadata !383, metadata !386}
!285 = metadata !{i32 786460, metadata !280, null, metadata !283, i32 0, i64 0, i64 0, i64 0, i32 0, metadata !286} ; [ DW_TAG_inheritance ]
!286 = metadata !{i32 786434, metadata !281, metadata !"sc_port_b<_ap_sc_::sc_core::sc_signal_in_if<bool> >", metadata !283, i32 268, i64 8, i64 8, i32 0, i32 0, null, metadata !287, i32 0, null, metadata !362} ; [ DW_TAG_class_type ]
!287 = metadata !{metadata !288, metadata !297, metadata !331, metadata !335, metadata !341, metadata !345, metadata !346, metadata !352, metadata !353, metadata !357, metadata !358}
!288 = metadata !{i32 786460, metadata !286, null, metadata !283, i32 0, i64 0, i64 0, i64 0, i32 0, metadata !289} ; [ DW_TAG_inheritance ]
!289 = metadata !{i32 786434, metadata !281, metadata !"sc_port_base", metadata !283, i32 265, i64 8, i64 8, i32 0, i32 0, null, metadata !290, i32 0, null, null} ; [ DW_TAG_class_type ]
!290 = metadata !{metadata !291}
!291 = metadata !{i32 786478, i32 0, metadata !289, metadata !"sc_port_base", metadata !"sc_port_base", metadata !"", metadata !283, i32 265, metadata !292, i1 false, i1 false, i32 0, i32 0, null, i32 256, i1 false, null, null, i32 0, metadata !295, i32 265} ; [ DW_TAG_subprogram ]
!292 = metadata !{i32 786453, i32 0, metadata !"", i32 0, i32 0, i64 0, i64 0, i64 0, i32 0, null, metadata !293, i32 0, i32 0} ; [ DW_TAG_subroutine_type ]
!293 = metadata !{null, metadata !294}
!294 = metadata !{i32 786447, i32 0, metadata !"", i32 0, i32 0, i64 64, i64 64, i64 0, i32 64, metadata !289} ; [ DW_TAG_pointer_type ]
!295 = metadata !{metadata !296}
!296 = metadata !{i32 786468}                     ; [ DW_TAG_base_type ]
!297 = metadata !{i32 786445, metadata !286, metadata !"m_if", metadata !283, i32 270, i64 8, i64 8, i64 0, i32 0, metadata !298} ; [ DW_TAG_member ]
!298 = metadata !{i32 786434, metadata !281, metadata !"sc_signal_in_if<bool>", metadata !283, i32 172, i64 8, i64 8, i32 0, i32 0, null, metadata !299, i32 0, null, metadata !329} ; [ DW_TAG_class_type ]
!299 = metadata !{metadata !300, metadata !307, metadata !310, metadata !314, metadata !317, metadata !322, metadata !326}
!300 = metadata !{i32 786460, metadata !298, null, metadata !283, i32 0, i64 0, i64 0, i64 0, i32 0, metadata !301} ; [ DW_TAG_inheritance ]
!301 = metadata !{i32 786434, metadata !281, metadata !"sc_interface", metadata !283, i32 165, i64 8, i64 8, i32 0, i32 0, null, metadata !302, i32 0, null, null} ; [ DW_TAG_class_type ]
!302 = metadata !{metadata !303}
!303 = metadata !{i32 786478, i32 0, metadata !301, metadata !"sc_interface", metadata !"sc_interface", metadata !"", metadata !283, i32 165, metadata !304, i1 false, i1 false, i32 0, i32 0, null, i32 256, i1 false, null, null, i32 0, metadata !295, i32 165} ; [ DW_TAG_subprogram ]
!304 = metadata !{i32 786453, i32 0, metadata !"", i32 0, i32 0, i64 0, i64 0, i64 0, i32 0, null, metadata !305, i32 0, i32 0} ; [ DW_TAG_subroutine_type ]
!305 = metadata !{null, metadata !306}
!306 = metadata !{i32 786447, i32 0, metadata !"", i32 0, i32 0, i64 64, i64 64, i64 0, i32 64, metadata !301} ; [ DW_TAG_pointer_type ]
!307 = metadata !{i32 786445, metadata !298, metadata !"Val", metadata !283, i32 174, i64 8, i64 8, i64 0, i32 0, metadata !308} ; [ DW_TAG_member ]
!308 = metadata !{i32 786485, null, metadata !"", null, i32 0, i64 0, i64 0, i64 0, i32 0, metadata !309} ; [ DW_TAG_volatile_type ]
!309 = metadata !{i32 786468, null, metadata !"bool", null, i32 0, i64 8, i64 8, i64 0, i32 0, i32 2} ; [ DW_TAG_base_type ]
!310 = metadata !{i32 786478, i32 0, metadata !298, metadata !"sc_signal_in_if", metadata !"sc_signal_in_if", metadata !"", metadata !283, i32 176, metadata !311, i1 false, i1 false, i32 0, i32 0, null, i32 256, i1 false, null, null, i32 0, metadata !295, i32 176} ; [ DW_TAG_subprogram ]
!311 = metadata !{i32 786453, i32 0, metadata !"", i32 0, i32 0, i64 0, i64 0, i64 0, i32 0, null, metadata !312, i32 0, i32 0} ; [ DW_TAG_subroutine_type ]
!312 = metadata !{null, metadata !313}
!313 = metadata !{i32 786447, i32 0, metadata !"", i32 0, i32 0, i64 64, i64 64, i64 0, i32 64, metadata !298} ; [ DW_TAG_pointer_type ]
!314 = metadata !{i32 786478, i32 0, metadata !298, metadata !"read", metadata !"read", metadata !"_ZN7_ap_sc_7sc_core15sc_signal_in_ifIbE4readEv", metadata !283, i32 180, metadata !315, i1 false, i1 false, i32 0, i32 0, null, i32 256, i1 false, null, null, i32 0, metadata !295, i32 180} ; [ DW_TAG_subprogram ]
!315 = metadata !{i32 786453, i32 0, metadata !"", i32 0, i32 0, i64 0, i64 0, i64 0, i32 0, null, metadata !316, i32 0, i32 0} ; [ DW_TAG_subroutine_type ]
!316 = metadata !{metadata !309, metadata !313}
!317 = metadata !{i32 786478, i32 0, metadata !298, metadata !"read", metadata !"read", metadata !"_ZNK7_ap_sc_7sc_core15sc_signal_in_ifIbE4readEv", metadata !283, i32 181, metadata !318, i1 false, i1 false, i32 0, i32 0, null, i32 256, i1 false, null, null, i32 0, metadata !295, i32 181} ; [ DW_TAG_subprogram ]
!318 = metadata !{i32 786453, i32 0, metadata !"", i32 0, i32 0, i64 0, i64 0, i64 0, i32 0, null, metadata !319, i32 0, i32 0} ; [ DW_TAG_subroutine_type ]
!319 = metadata !{metadata !309, metadata !320}
!320 = metadata !{i32 786447, i32 0, metadata !"", i32 0, i32 0, i64 64, i64 64, i64 0, i32 64, metadata !321} ; [ DW_TAG_pointer_type ]
!321 = metadata !{i32 786470, null, metadata !"", null, i32 0, i64 0, i64 0, i64 0, i32 0, metadata !298} ; [ DW_TAG_const_type ]
!322 = metadata !{i32 786478, i32 0, metadata !298, metadata !"operator const _Bool", metadata !"operator const _Bool", metadata !"_ZN7_ap_sc_7sc_core15sc_signal_in_ifIbEcvKbEv", metadata !283, i32 187, metadata !323, i1 false, i1 false, i32 0, i32 0, null, i32 256, i1 false, null, null, i32 0, metadata !295, i32 187} ; [ DW_TAG_subprogram ]
!323 = metadata !{i32 786453, i32 0, metadata !"", i32 0, i32 0, i64 0, i64 0, i64 0, i32 0, null, metadata !324, i32 0, i32 0} ; [ DW_TAG_subroutine_type ]
!324 = metadata !{metadata !325, metadata !313}
!325 = metadata !{i32 786470, null, metadata !"", null, i32 0, i64 0, i64 0, i64 0, i32 0, metadata !309} ; [ DW_TAG_const_type ]
!326 = metadata !{i32 786478, i32 0, metadata !298, metadata !"operator const _Bool", metadata !"operator const _Bool", metadata !"_ZNK7_ap_sc_7sc_core15sc_signal_in_ifIbEcvKbEv", metadata !283, i32 188, metadata !327, i1 false, i1 false, i32 0, i32 0, null, i32 256, i1 false, null, null, i32 0, metadata !295, i32 188} ; [ DW_TAG_subprogram ]
!327 = metadata !{i32 786453, i32 0, metadata !"", i32 0, i32 0, i64 0, i64 0, i64 0, i32 0, null, metadata !328, i32 0, i32 0} ; [ DW_TAG_subroutine_type ]
!328 = metadata !{metadata !325, metadata !320}
!329 = metadata !{metadata !330}
!330 = metadata !{i32 786479, null, metadata !"T", metadata !309, null, i32 0, i32 0} ; [ DW_TAG_template_type_parameter ]
!331 = metadata !{i32 786478, i32 0, metadata !286, metadata !"sc_port_b", metadata !"sc_port_b", metadata !"", metadata !283, i32 272, metadata !332, i1 false, i1 false, i32 0, i32 0, null, i32 256, i1 false, null, null, i32 0, metadata !295, i32 272} ; [ DW_TAG_subprogram ]
!332 = metadata !{i32 786453, i32 0, metadata !"", i32 0, i32 0, i64 0, i64 0, i64 0, i32 0, null, metadata !333, i32 0, i32 0} ; [ DW_TAG_subroutine_type ]
!333 = metadata !{null, metadata !334}
!334 = metadata !{i32 786447, i32 0, metadata !"", i32 0, i32 0, i64 64, i64 64, i64 0, i32 64, metadata !286} ; [ DW_TAG_pointer_type ]
!335 = metadata !{i32 786478, i32 0, metadata !286, metadata !"sc_port_b", metadata !"sc_port_b", metadata !"", metadata !283, i32 273, metadata !336, i1 false, i1 false, i32 0, i32 0, null, i32 384, i1 false, null, null, i32 0, metadata !295, i32 273} ; [ DW_TAG_subprogram ]
!336 = metadata !{i32 786453, i32 0, metadata !"", i32 0, i32 0, i64 0, i64 0, i64 0, i32 0, null, metadata !337, i32 0, i32 0} ; [ DW_TAG_subroutine_type ]
!337 = metadata !{null, metadata !334, metadata !338}
!338 = metadata !{i32 786447, null, metadata !"", null, i32 0, i64 64, i64 64, i64 0, i32 0, metadata !339} ; [ DW_TAG_pointer_type ]
!339 = metadata !{i32 786470, null, metadata !"", null, i32 0, i64 0, i64 0, i64 0, i32 0, metadata !340} ; [ DW_TAG_const_type ]
!340 = metadata !{i32 786468, null, metadata !"char", null, i32 0, i64 8, i64 8, i64 0, i32 0, i32 6} ; [ DW_TAG_base_type ]
!341 = metadata !{i32 786478, i32 0, metadata !286, metadata !"bind", metadata !"bind", metadata !"_ZN7_ap_sc_7sc_core9sc_port_bINS0_15sc_signal_in_ifIbEEE4bindERS3_", metadata !283, i32 277, metadata !342, i1 false, i1 false, i32 0, i32 0, null, i32 256, i1 false, null, null, i32 0, metadata !295, i32 277} ; [ DW_TAG_subprogram ]
!342 = metadata !{i32 786453, i32 0, metadata !"", i32 0, i32 0, i64 0, i64 0, i64 0, i32 0, null, metadata !343, i32 0, i32 0} ; [ DW_TAG_subroutine_type ]
!343 = metadata !{null, metadata !334, metadata !344}
!344 = metadata !{i32 786448, null, null, null, i32 0, i64 0, i64 0, i64 0, i32 0, metadata !298} ; [ DW_TAG_reference_type ]
!345 = metadata !{i32 786478, i32 0, metadata !286, metadata !"operator()", metadata !"operator()", metadata !"_ZN7_ap_sc_7sc_core9sc_port_bINS0_15sc_signal_in_ifIbEEEclERS3_", metadata !283, i32 280, metadata !342, i1 false, i1 false, i32 0, i32 0, null, i32 256, i1 false, null, null, i32 0, metadata !295, i32 280} ; [ DW_TAG_subprogram ]
!346 = metadata !{i32 786478, i32 0, metadata !286, metadata !"bind", metadata !"bind", metadata !"_ZN7_ap_sc_7sc_core9sc_port_bINS0_15sc_signal_in_ifIbEEE4bindERNS0_15sc_prim_channelE", metadata !283, i32 281, metadata !347, i1 false, i1 false, i32 0, i32 0, null, i32 256, i1 false, null, null, i32 0, metadata !295, i32 281} ; [ DW_TAG_subprogram ]
!347 = metadata !{i32 786453, i32 0, metadata !"", i32 0, i32 0, i64 0, i64 0, i64 0, i32 0, null, metadata !348, i32 0, i32 0} ; [ DW_TAG_subroutine_type ]
!348 = metadata !{null, metadata !334, metadata !349}
!349 = metadata !{i32 786448, null, null, null, i32 0, i64 0, i64 0, i64 0, i32 0, metadata !350} ; [ DW_TAG_reference_type ]
!350 = metadata !{i32 786434, metadata !281, metadata !"sc_prim_channel", metadata !283, i32 166, i64 8, i64 8, i32 0, i32 0, null, metadata !351, i32 0, null, null} ; [ DW_TAG_class_type ]
!351 = metadata !{i32 0}
!352 = metadata !{i32 786478, i32 0, metadata !286, metadata !"operator()", metadata !"operator()", metadata !"_ZN7_ap_sc_7sc_core9sc_port_bINS0_15sc_signal_in_ifIbEEEclERNS0_15sc_prim_channelE", metadata !283, i32 284, metadata !347, i1 false, i1 false, i32 0, i32 0, null, i32 256, i1 false, null, null, i32 0, metadata !295, i32 284} ; [ DW_TAG_subprogram ]
!353 = metadata !{i32 786478, i32 0, metadata !286, metadata !"bind", metadata !"bind", metadata !"_ZN7_ap_sc_7sc_core9sc_port_bINS0_15sc_signal_in_ifIbEEE4bindERS4_", metadata !283, i32 285, metadata !354, i1 false, i1 false, i32 0, i32 0, null, i32 256, i1 false, null, null, i32 0, metadata !295, i32 285} ; [ DW_TAG_subprogram ]
!354 = metadata !{i32 786453, i32 0, metadata !"", i32 0, i32 0, i64 0, i64 0, i64 0, i32 0, null, metadata !355, i32 0, i32 0} ; [ DW_TAG_subroutine_type ]
!355 = metadata !{null, metadata !334, metadata !356}
!356 = metadata !{i32 786448, null, null, null, i32 0, i64 0, i64 0, i64 0, i32 0, metadata !286} ; [ DW_TAG_reference_type ]
!357 = metadata !{i32 786478, i32 0, metadata !286, metadata !"operator()", metadata !"operator()", metadata !"_ZN7_ap_sc_7sc_core9sc_port_bINS0_15sc_signal_in_ifIbEEEclERS4_", metadata !283, i32 286, metadata !354, i1 false, i1 false, i32 0, i32 0, null, i32 256, i1 false, null, null, i32 0, metadata !295, i32 286} ; [ DW_TAG_subprogram ]
!358 = metadata !{i32 786478, i32 0, metadata !286, metadata !"operator->", metadata !"operator->", metadata !"_ZN7_ap_sc_7sc_core9sc_port_bINS0_15sc_signal_in_ifIbEEEptEv", metadata !283, i32 288, metadata !359, i1 false, i1 false, i32 0, i32 0, null, i32 256, i1 false, null, null, i32 0, metadata !295, i32 288} ; [ DW_TAG_subprogram ]
!359 = metadata !{i32 786453, i32 0, metadata !"", i32 0, i32 0, i64 0, i64 0, i64 0, i32 0, null, metadata !360, i32 0, i32 0} ; [ DW_TAG_subroutine_type ]
!360 = metadata !{metadata !361, metadata !334}
!361 = metadata !{i32 786447, null, metadata !"", null, i32 0, i64 64, i64 64, i64 0, i32 0, metadata !298} ; [ DW_TAG_pointer_type ]
!362 = metadata !{metadata !363}
!363 = metadata !{i32 786479, null, metadata !"IF", metadata !298, null, i32 0, i32 0} ; [ DW_TAG_template_type_parameter ]
!364 = metadata !{i32 786478, i32 0, metadata !280, metadata !"pos", metadata !"pos", metadata !"_ZNK7_ap_sc_7sc_core5sc_inIbE3posEv", metadata !283, i32 365, metadata !365, i1 false, i1 false, i32 0, i32 0, null, i32 256, i1 false, null, null, i32 0, metadata !295, i32 365} ; [ DW_TAG_subprogram ]
!365 = metadata !{i32 786453, i32 0, metadata !"", i32 0, i32 0, i64 0, i64 0, i64 0, i32 0, null, metadata !366, i32 0, i32 0} ; [ DW_TAG_subroutine_type ]
!366 = metadata !{metadata !367, metadata !370}
!367 = metadata !{i32 786448, null, null, null, i32 0, i64 0, i64 0, i64 0, i32 0, metadata !368} ; [ DW_TAG_reference_type ]
!368 = metadata !{i32 786454, metadata !281, metadata !"sc_event_finder", metadata !283, i32 353, i64 0, i64 0, i64 0, i32 0, metadata !369} ; [ DW_TAG_typedef ]
!369 = metadata !{i32 786447, null, metadata !"", null, i32 0, i64 64, i64 64, i64 0, i32 0, null} ; [ DW_TAG_pointer_type ]
!370 = metadata !{i32 786447, i32 0, metadata !"", i32 0, i32 0, i64 64, i64 64, i64 0, i32 64, metadata !371} ; [ DW_TAG_pointer_type ]
!371 = metadata !{i32 786470, null, metadata !"", null, i32 0, i64 0, i64 0, i64 0, i32 0, metadata !280} ; [ DW_TAG_const_type ]
!372 = metadata !{i32 786478, i32 0, metadata !280, metadata !"neg", metadata !"neg", metadata !"_ZNK7_ap_sc_7sc_core5sc_inIbE3negEv", metadata !283, i32 366, metadata !365, i1 false, i1 false, i32 0, i32 0, null, i32 256, i1 false, null, null, i32 0, metadata !295, i32 366} ; [ DW_TAG_subprogram ]
!373 = metadata !{i32 786478, i32 0, metadata !280, metadata !"sc_in", metadata !"sc_in", metadata !"", metadata !283, i32 368, metadata !374, i1 false, i1 false, i32 0, i32 0, null, i32 256, i1 false, null, null, i32 0, metadata !295, i32 368} ; [ DW_TAG_subprogram ]
!374 = metadata !{i32 786453, i32 0, metadata !"", i32 0, i32 0, i64 0, i64 0, i64 0, i32 0, null, metadata !375, i32 0, i32 0} ; [ DW_TAG_subroutine_type ]
!375 = metadata !{null, metadata !376}
!376 = metadata !{i32 786447, i32 0, metadata !"", i32 0, i32 0, i64 64, i64 64, i64 0, i32 64, metadata !280} ; [ DW_TAG_pointer_type ]
!377 = metadata !{i32 786478, i32 0, metadata !280, metadata !"sc_in", metadata !"sc_in", metadata !"", metadata !283, i32 369, metadata !378, i1 false, i1 false, i32 0, i32 0, null, i32 384, i1 false, null, null, i32 0, metadata !295, i32 369} ; [ DW_TAG_subprogram ]
!378 = metadata !{i32 786453, i32 0, metadata !"", i32 0, i32 0, i64 0, i64 0, i64 0, i32 0, null, metadata !379, i32 0, i32 0} ; [ DW_TAG_subroutine_type ]
!379 = metadata !{null, metadata !376, metadata !338}
!380 = metadata !{i32 786478, i32 0, metadata !280, metadata !"read", metadata !"read", metadata !"_ZN7_ap_sc_7sc_core5sc_inIbE4readEv", metadata !283, i32 372, metadata !381, i1 false, i1 false, i32 0, i32 0, null, i32 256, i1 false, null, null, i32 0, metadata !295, i32 372} ; [ DW_TAG_subprogram ]
!381 = metadata !{i32 786453, i32 0, metadata !"", i32 0, i32 0, i64 0, i64 0, i64 0, i32 0, null, metadata !382, i32 0, i32 0} ; [ DW_TAG_subroutine_type ]
!382 = metadata !{metadata !309, metadata !376}
!383 = metadata !{i32 786478, i32 0, metadata !280, metadata !"operator const _Bool", metadata !"operator const _Bool", metadata !"_ZN7_ap_sc_7sc_core5sc_inIbEcvKbEv", metadata !283, i32 373, metadata !384, i1 false, i1 false, i32 0, i32 0, null, i32 256, i1 false, null, null, i32 0, metadata !295, i32 373} ; [ DW_TAG_subprogram ]
!384 = metadata !{i32 786453, i32 0, metadata !"", i32 0, i32 0, i64 0, i64 0, i64 0, i32 0, null, metadata !385, i32 0, i32 0} ; [ DW_TAG_subroutine_type ]
!385 = metadata !{metadata !325, metadata !376}
!386 = metadata !{i32 786478, i32 0, metadata !280, metadata !"delayed", metadata !"delayed", metadata !"_ZNK7_ap_sc_7sc_core5sc_inIbE7delayedEv", metadata !283, i32 376, metadata !387, i1 false, i1 false, i32 0, i32 0, null, i32 256, i1 false, null, null, i32 0, metadata !295, i32 376} ; [ DW_TAG_subprogram ]
!387 = metadata !{i32 786453, i32 0, metadata !"", i32 0, i32 0, i64 0, i64 0, i64 0, i32 0, null, metadata !388, i32 0, i32 0} ; [ DW_TAG_subroutine_type ]
!388 = metadata !{metadata !389, metadata !370}
!389 = metadata !{i32 786448, null, null, null, i32 0, i64 0, i64 0, i64 0, i32 0, metadata !390} ; [ DW_TAG_reference_type ]
!390 = metadata !{i32 786470, null, metadata !"", null, i32 0, i64 0, i64 0, i64 0, i32 0, metadata !391} ; [ DW_TAG_const_type ]
!391 = metadata !{i32 786434, metadata !281, metadata !"sc_signal_bool_deval", metadata !283, i32 255, i64 8, i64 8, i32 0, i32 0, null, metadata !392, i32 0, null, null} ; [ DW_TAG_class_type ]
!392 = metadata !{metadata !393}
!393 = metadata !{i32 786478, i32 0, metadata !391, metadata !"operator==", metadata !"operator==", metadata !"_ZNK7_ap_sc_7sc_core20sc_signal_bool_devaleqEb", metadata !283, i32 257, metadata !394, i1 false, i1 false, i32 0, i32 0, null, i32 256, i1 false, null, null, i32 0, metadata !295, i32 257} ; [ DW_TAG_subprogram ]
!394 = metadata !{i32 786453, i32 0, metadata !"", i32 0, i32 0, i64 0, i64 0, i64 0, i32 0, null, metadata !395, i32 0, i32 0} ; [ DW_TAG_subroutine_type ]
!395 = metadata !{metadata !396, metadata !397, metadata !309}
!396 = metadata !{i32 786448, null, null, null, i32 0, i64 0, i64 0, i64 0, i32 0, metadata !391} ; [ DW_TAG_reference_type ]
!397 = metadata !{i32 786447, i32 0, metadata !"", i32 0, i32 0, i64 64, i64 64, i64 0, i32 64, metadata !390} ; [ DW_TAG_pointer_type ]
!398 = metadata !{i32 786445, metadata !277, metadata !"reset", metadata !273, i32 11, i64 8, i64 8, i64 8, i32 0, metadata !280} ; [ DW_TAG_member ]
!399 = metadata !{i32 786445, metadata !277, metadata !"x", metadata !273, i32 12, i64 16, i64 16, i64 16, i32 0, metadata !400} ; [ DW_TAG_member ]
!400 = metadata !{i32 786434, metadata !281, metadata !"sc_out<_ap_sc_::sc_dt::sc_uint<10> >", metadata !283, i32 430, i64 16, i64 16, i32 0, i32 0, null, metadata !401, i32 0, null, metadata !1675} ; [ DW_TAG_class_type ]
!401 = metadata !{metadata !402, metadata !1677, metadata !1681}
!402 = metadata !{i32 786460, metadata !400, null, metadata !283, i32 0, i64 0, i64 0, i64 0, i32 0, metadata !403} ; [ DW_TAG_inheritance ]
!403 = metadata !{i32 786434, metadata !281, metadata !"sc_inout<_ap_sc_::sc_dt::sc_uint<10> >", metadata !283, i32 409, i64 16, i64 16, i32 0, i32 0, null, metadata !404, i32 0, null, metadata !1675} ; [ DW_TAG_class_type ]
!404 = metadata !{metadata !405, metadata !1651, metadata !1655, metadata !1658, metadata !1661, metadata !1665, metadata !1672}
!405 = metadata !{i32 786460, metadata !403, null, metadata !283, i32 0, i64 0, i64 0, i64 0, i32 0, metadata !406} ; [ DW_TAG_inheritance ]
!406 = metadata !{i32 786434, metadata !281, metadata !"sc_port_b<_ap_sc_::sc_core::sc_signal_inout_if<_ap_sc_::sc_dt::sc_uint<10> > >", metadata !283, i32 268, i64 16, i64 16, i32 0, i32 0, null, metadata !407, i32 0, null, metadata !1649} ; [ DW_TAG_class_type ]
!407 = metadata !{metadata !408, metadata !409, metadata !1625, metadata !1629, metadata !1632, metadata !1635, metadata !1636, metadata !1639, metadata !1640, metadata !1644, metadata !1645}
!408 = metadata !{i32 786460, metadata !406, null, metadata !283, i32 0, i64 0, i64 0, i64 0, i32 0, metadata !289} ; [ DW_TAG_inheritance ]
!409 = metadata !{i32 786445, metadata !406, metadata !"m_if", metadata !283, i32 270, i64 16, i64 16, i64 0, i32 0, metadata !410} ; [ DW_TAG_member ]
!410 = metadata !{i32 786434, metadata !281, metadata !"sc_signal_inout_if<_ap_sc_::sc_dt::sc_uint<10> >", metadata !283, i32 193, i64 16, i64 16, i32 0, i32 0, null, metadata !411, i32 0, null, metadata !1613} ; [ DW_TAG_class_type ]
!411 = metadata !{metadata !412, metadata !1615, metadata !1619}
!412 = metadata !{i32 786460, metadata !410, null, metadata !283, i32 0, i64 0, i64 0, i64 0, i32 0, metadata !413} ; [ DW_TAG_inheritance ]
!413 = metadata !{i32 786434, metadata !281, metadata !"sc_signal_in_if<_ap_sc_::sc_dt::sc_uint<10> >", metadata !283, i32 172, i64 16, i64 16, i32 0, i32 0, null, metadata !414, i32 0, null, metadata !1613} ; [ DW_TAG_class_type ]
!414 = metadata !{metadata !415, metadata !416, metadata !1595, metadata !1599, metadata !1602, metadata !1607, metadata !1610}
!415 = metadata !{i32 786460, metadata !413, null, metadata !283, i32 0, i64 0, i64 0, i64 0, i32 0, metadata !301} ; [ DW_TAG_inheritance ]
!416 = metadata !{i32 786445, metadata !413, metadata !"Val", metadata !283, i32 174, i64 16, i64 16, i64 0, i32 0, metadata !417} ; [ DW_TAG_member ]
!417 = metadata !{i32 786485, null, metadata !"", null, i32 0, i64 0, i64 0, i64 0, i32 0, metadata !418} ; [ DW_TAG_volatile_type ]
!418 = metadata !{i32 786434, metadata !419, metadata !"sc_uint<10>", metadata !421, i32 269, i64 16, i64 16, i32 0, i32 0, null, metadata !422, i32 0, null, metadata !1593} ; [ DW_TAG_class_type ]
!419 = metadata !{i32 786489, metadata !420, metadata !"sc_dt", metadata !421, i32 67} ; [ DW_TAG_namespace ]
!420 = metadata !{i32 786489, null, metadata !"_ap_sc_", metadata !421, i32 64} ; [ DW_TAG_namespace ]
!421 = metadata !{i32 786473, metadata !"/opt/xilinx/vivado/2018.2/Vivado/2018.2/common/technology/autopilot/ap_sysc/ap_sc_dt.h", metadata !"/net/e/floupias001/FRACTALE/fractale/Fractale-It", null} ; [ DW_TAG_file_type ]
!422 = metadata !{metadata !423, metadata !1507, metadata !1511, metadata !1517, metadata !1522, metadata !1528, metadata !1532, metadata !1538, metadata !1541, metadata !1544, metadata !1547, metadata !1550, metadata !1553, metadata !1556, metadata !1559, metadata !1562, metadata !1565, metadata !1568, metadata !1571, metadata !1574, metadata !1577, metadata !1581, metadata !1586, metadata !1590}
!423 = metadata !{i32 786460, metadata !418, null, metadata !421, i32 0, i64 0, i64 0, i64 0, i32 0, metadata !424} ; [ DW_TAG_inheritance ]
!424 = metadata !{i32 786434, null, metadata !"ap_int_base<10, false, true>", metadata !425, i32 1495, i64 16, i64 16, i32 0, i32 0, null, metadata !426, i32 0, null, metadata !1506} ; [ DW_TAG_class_type ]
!425 = metadata !{i32 786473, metadata !"/opt/xilinx/vivado/2018.2/Vivado/2018.2/common/technology/autopilot/ap_int_syn.h", metadata !"/net/e/floupias001/FRACTALE/fractale/Fractale-It", null} ; [ DW_TAG_file_type ]
!426 = metadata !{metadata !427, metadata !441, metadata !445, metadata !453, metadata !459, metadata !462, metadata !466, metadata !470, metadata !474, metadata !478, metadata !481, metadata !485, metadata !489, metadata !493, metadata !498, metadata !503, metadata !508, metadata !512, metadata !516, metadata !519, metadata !522, metadata !526, metadata !529, metadata !532, metadata !533, metadata !537, metadata !540, metadata !543, metadata !546, metadata !549, metadata !552, metadata !555, metadata !558, metadata !561, metadata !564, metadata !567, metadata !570, metadata !579, metadata !582, metadata !585, metadata !588, metadata !591, metadata !594, metadata !597, metadata !600, metadata !603, metadata !606, metadata !609, metadata !612, metadata !615, metadata !616, metadata !620, metadata !623, metadata !624, metadata !625, metadata !626, metadata !627, metadata !628, metadata !631, metadata !632, metadata !635, metadata !636, metadata !637, metadata !638, metadata !639, metadata !640, metadata !643, metadata !644, metadata !645, metadata !648, metadata !649, metadata !652, metadata !653, metadata !1465, metadata !1471, metadata !1472, metadata !1475, metadata !1476, metadata !1480, metadata !1481, metadata !1482, metadata !1483, metadata !1486, metadata !1487, metadata !1488, metadata !1489, metadata !1490, metadata !1491, metadata !1492, metadata !1493, metadata !1494, metadata !1495, metadata !1496, metadata !1497, metadata !1500, metadata !1503}
!427 = metadata !{i32 786460, metadata !424, null, metadata !425, i32 0, i64 0, i64 0, i64 0, i32 0, metadata !428} ; [ DW_TAG_inheritance ]
!428 = metadata !{i32 786434, null, metadata !"ssdm_int<10 + 1024 * 0, false>", metadata !429, i32 22, i64 16, i64 16, i32 0, i32 0, null, metadata !430, i32 0, null, metadata !437} ; [ DW_TAG_class_type ]
!429 = metadata !{i32 786473, metadata !"/opt/xilinx/vivado/2018.2/Vivado/2018.2/common/technology/autopilot/etc/autopilot_dt.def", metadata !"/net/e/floupias001/FRACTALE/fractale/Fractale-It", null} ; [ DW_TAG_file_type ]
!430 = metadata !{metadata !431, metadata !433}
!431 = metadata !{i32 786445, metadata !428, metadata !"V", metadata !429, i32 22, i64 10, i64 16, i64 0, i32 0, metadata !432} ; [ DW_TAG_member ]
!432 = metadata !{i32 786468, null, metadata !"uint10", null, i32 0, i64 10, i64 16, i64 0, i32 0, i32 7} ; [ DW_TAG_base_type ]
!433 = metadata !{i32 786478, i32 0, metadata !428, metadata !"ssdm_int", metadata !"ssdm_int", metadata !"", metadata !429, i32 22, metadata !434, i1 false, i1 false, i32 0, i32 0, null, i32 256, i1 false, null, null, i32 0, metadata !295, i32 22} ; [ DW_TAG_subprogram ]
!434 = metadata !{i32 786453, i32 0, metadata !"", i32 0, i32 0, i64 0, i64 0, i64 0, i32 0, null, metadata !435, i32 0, i32 0} ; [ DW_TAG_subroutine_type ]
!435 = metadata !{null, metadata !436}
!436 = metadata !{i32 786447, i32 0, metadata !"", i32 0, i32 0, i64 64, i64 64, i64 0, i32 64, metadata !428} ; [ DW_TAG_pointer_type ]
!437 = metadata !{metadata !438, metadata !440}
!438 = metadata !{i32 786480, null, metadata !"_AP_N", metadata !439, i64 10, null, i32 0, i32 0} ; [ DW_TAG_template_value_parameter ]
!439 = metadata !{i32 786468, null, metadata !"int", null, i32 0, i64 32, i64 32, i64 0, i32 0, i32 5} ; [ DW_TAG_base_type ]
!440 = metadata !{i32 786480, null, metadata !"_AP_S", metadata !309, i64 0, null, i32 0, i32 0} ; [ DW_TAG_template_value_parameter ]
!441 = metadata !{i32 786478, i32 0, metadata !424, metadata !"ap_int_base", metadata !"ap_int_base", metadata !"", metadata !425, i32 1536, metadata !442, i1 false, i1 false, i32 0, i32 0, null, i32 256, i1 false, null, null, i32 0, metadata !295, i32 1536} ; [ DW_TAG_subprogram ]
!442 = metadata !{i32 786453, i32 0, metadata !"", i32 0, i32 0, i64 0, i64 0, i64 0, i32 0, null, metadata !443, i32 0, i32 0} ; [ DW_TAG_subroutine_type ]
!443 = metadata !{null, metadata !444}
!444 = metadata !{i32 786447, i32 0, metadata !"", i32 0, i32 0, i64 64, i64 64, i64 0, i32 64, metadata !424} ; [ DW_TAG_pointer_type ]
!445 = metadata !{i32 786478, i32 0, metadata !424, metadata !"ap_int_base<10, false>", metadata !"ap_int_base<10, false>", metadata !"", metadata !425, i32 1548, metadata !446, i1 false, i1 false, i32 0, i32 0, null, i32 256, i1 false, null, metadata !450, i32 0, metadata !295, i32 1548} ; [ DW_TAG_subprogram ]
!446 = metadata !{i32 786453, i32 0, metadata !"", i32 0, i32 0, i64 0, i64 0, i64 0, i32 0, null, metadata !447, i32 0, i32 0} ; [ DW_TAG_subroutine_type ]
!447 = metadata !{null, metadata !444, metadata !448}
!448 = metadata !{i32 786448, null, null, null, i32 0, i64 0, i64 0, i64 0, i32 0, metadata !449} ; [ DW_TAG_reference_type ]
!449 = metadata !{i32 786470, null, metadata !"", null, i32 0, i64 0, i64 0, i64 0, i32 0, metadata !424} ; [ DW_TAG_const_type ]
!450 = metadata !{metadata !451, metadata !452}
!451 = metadata !{i32 786480, null, metadata !"_AP_W2", metadata !439, i64 10, null, i32 0, i32 0} ; [ DW_TAG_template_value_parameter ]
!452 = metadata !{i32 786480, null, metadata !"_AP_S2", metadata !309, i64 0, null, i32 0, i32 0} ; [ DW_TAG_template_value_parameter ]
!453 = metadata !{i32 786478, i32 0, metadata !424, metadata !"ap_int_base<10, false>", metadata !"ap_int_base<10, false>", metadata !"", metadata !425, i32 1551, metadata !454, i1 false, i1 false, i32 0, i32 0, null, i32 256, i1 false, null, metadata !450, i32 0, metadata !295, i32 1551} ; [ DW_TAG_subprogram ]
!454 = metadata !{i32 786453, i32 0, metadata !"", i32 0, i32 0, i64 0, i64 0, i64 0, i32 0, null, metadata !455, i32 0, i32 0} ; [ DW_TAG_subroutine_type ]
!455 = metadata !{null, metadata !444, metadata !456}
!456 = metadata !{i32 786448, null, null, null, i32 0, i64 0, i64 0, i64 0, i32 0, metadata !457} ; [ DW_TAG_reference_type ]
!457 = metadata !{i32 786470, null, metadata !"", null, i32 0, i64 0, i64 0, i64 0, i32 0, metadata !458} ; [ DW_TAG_const_type ]
!458 = metadata !{i32 786485, null, metadata !"", null, i32 0, i64 0, i64 0, i64 0, i32 0, metadata !424} ; [ DW_TAG_volatile_type ]
!459 = metadata !{i32 786478, i32 0, metadata !424, metadata !"ap_int_base", metadata !"ap_int_base", metadata !"", metadata !425, i32 1558, metadata !460, i1 false, i1 false, i32 0, i32 0, null, i32 384, i1 false, null, null, i32 0, metadata !295, i32 1558} ; [ DW_TAG_subprogram ]
!460 = metadata !{i32 786453, i32 0, metadata !"", i32 0, i32 0, i64 0, i64 0, i64 0, i32 0, null, metadata !461, i32 0, i32 0} ; [ DW_TAG_subroutine_type ]
!461 = metadata !{null, metadata !444, metadata !309}
!462 = metadata !{i32 786478, i32 0, metadata !424, metadata !"ap_int_base", metadata !"ap_int_base", metadata !"", metadata !425, i32 1559, metadata !463, i1 false, i1 false, i32 0, i32 0, null, i32 384, i1 false, null, null, i32 0, metadata !295, i32 1559} ; [ DW_TAG_subprogram ]
!463 = metadata !{i32 786453, i32 0, metadata !"", i32 0, i32 0, i64 0, i64 0, i64 0, i32 0, null, metadata !464, i32 0, i32 0} ; [ DW_TAG_subroutine_type ]
!464 = metadata !{null, metadata !444, metadata !465}
!465 = metadata !{i32 786468, null, metadata !"signed char", null, i32 0, i64 8, i64 8, i64 0, i32 0, i32 6} ; [ DW_TAG_base_type ]
!466 = metadata !{i32 786478, i32 0, metadata !424, metadata !"ap_int_base", metadata !"ap_int_base", metadata !"", metadata !425, i32 1560, metadata !467, i1 false, i1 false, i32 0, i32 0, null, i32 384, i1 false, null, null, i32 0, metadata !295, i32 1560} ; [ DW_TAG_subprogram ]
!467 = metadata !{i32 786453, i32 0, metadata !"", i32 0, i32 0, i64 0, i64 0, i64 0, i32 0, null, metadata !468, i32 0, i32 0} ; [ DW_TAG_subroutine_type ]
!468 = metadata !{null, metadata !444, metadata !469}
!469 = metadata !{i32 786468, null, metadata !"unsigned char", null, i32 0, i64 8, i64 8, i64 0, i32 0, i32 8} ; [ DW_TAG_base_type ]
!470 = metadata !{i32 786478, i32 0, metadata !424, metadata !"ap_int_base", metadata !"ap_int_base", metadata !"", metadata !425, i32 1561, metadata !471, i1 false, i1 false, i32 0, i32 0, null, i32 384, i1 false, null, null, i32 0, metadata !295, i32 1561} ; [ DW_TAG_subprogram ]
!471 = metadata !{i32 786453, i32 0, metadata !"", i32 0, i32 0, i64 0, i64 0, i64 0, i32 0, null, metadata !472, i32 0, i32 0} ; [ DW_TAG_subroutine_type ]
!472 = metadata !{null, metadata !444, metadata !473}
!473 = metadata !{i32 786468, null, metadata !"short", null, i32 0, i64 16, i64 16, i64 0, i32 0, i32 5} ; [ DW_TAG_base_type ]
!474 = metadata !{i32 786478, i32 0, metadata !424, metadata !"ap_int_base", metadata !"ap_int_base", metadata !"", metadata !425, i32 1562, metadata !475, i1 false, i1 false, i32 0, i32 0, null, i32 384, i1 false, null, null, i32 0, metadata !295, i32 1562} ; [ DW_TAG_subprogram ]
!475 = metadata !{i32 786453, i32 0, metadata !"", i32 0, i32 0, i64 0, i64 0, i64 0, i32 0, null, metadata !476, i32 0, i32 0} ; [ DW_TAG_subroutine_type ]
!476 = metadata !{null, metadata !444, metadata !477}
!477 = metadata !{i32 786468, null, metadata !"unsigned short", null, i32 0, i64 16, i64 16, i64 0, i32 0, i32 7} ; [ DW_TAG_base_type ]
!478 = metadata !{i32 786478, i32 0, metadata !424, metadata !"ap_int_base", metadata !"ap_int_base", metadata !"", metadata !425, i32 1563, metadata !479, i1 false, i1 false, i32 0, i32 0, null, i32 384, i1 false, null, null, i32 0, metadata !295, i32 1563} ; [ DW_TAG_subprogram ]
!479 = metadata !{i32 786453, i32 0, metadata !"", i32 0, i32 0, i64 0, i64 0, i64 0, i32 0, null, metadata !480, i32 0, i32 0} ; [ DW_TAG_subroutine_type ]
!480 = metadata !{null, metadata !444, metadata !439}
!481 = metadata !{i32 786478, i32 0, metadata !424, metadata !"ap_int_base", metadata !"ap_int_base", metadata !"", metadata !425, i32 1564, metadata !482, i1 false, i1 false, i32 0, i32 0, null, i32 384, i1 false, null, null, i32 0, metadata !295, i32 1564} ; [ DW_TAG_subprogram ]
!482 = metadata !{i32 786453, i32 0, metadata !"", i32 0, i32 0, i64 0, i64 0, i64 0, i32 0, null, metadata !483, i32 0, i32 0} ; [ DW_TAG_subroutine_type ]
!483 = metadata !{null, metadata !444, metadata !484}
!484 = metadata !{i32 786468, null, metadata !"unsigned int", null, i32 0, i64 32, i64 32, i64 0, i32 0, i32 7} ; [ DW_TAG_base_type ]
!485 = metadata !{i32 786478, i32 0, metadata !424, metadata !"ap_int_base", metadata !"ap_int_base", metadata !"", metadata !425, i32 1565, metadata !486, i1 false, i1 false, i32 0, i32 0, null, i32 384, i1 false, null, null, i32 0, metadata !295, i32 1565} ; [ DW_TAG_subprogram ]
!486 = metadata !{i32 786453, i32 0, metadata !"", i32 0, i32 0, i64 0, i64 0, i64 0, i32 0, null, metadata !487, i32 0, i32 0} ; [ DW_TAG_subroutine_type ]
!487 = metadata !{null, metadata !444, metadata !488}
!488 = metadata !{i32 786468, null, metadata !"long int", null, i32 0, i64 64, i64 64, i64 0, i32 0, i32 5} ; [ DW_TAG_base_type ]
!489 = metadata !{i32 786478, i32 0, metadata !424, metadata !"ap_int_base", metadata !"ap_int_base", metadata !"", metadata !425, i32 1566, metadata !490, i1 false, i1 false, i32 0, i32 0, null, i32 384, i1 false, null, null, i32 0, metadata !295, i32 1566} ; [ DW_TAG_subprogram ]
!490 = metadata !{i32 786453, i32 0, metadata !"", i32 0, i32 0, i64 0, i64 0, i64 0, i32 0, null, metadata !491, i32 0, i32 0} ; [ DW_TAG_subroutine_type ]
!491 = metadata !{null, metadata !444, metadata !492}
!492 = metadata !{i32 786468, null, metadata !"long unsigned int", null, i32 0, i64 64, i64 64, i64 0, i32 0, i32 7} ; [ DW_TAG_base_type ]
!493 = metadata !{i32 786478, i32 0, metadata !424, metadata !"ap_int_base", metadata !"ap_int_base", metadata !"", metadata !425, i32 1567, metadata !494, i1 false, i1 false, i32 0, i32 0, null, i32 384, i1 false, null, null, i32 0, metadata !295, i32 1567} ; [ DW_TAG_subprogram ]
!494 = metadata !{i32 786453, i32 0, metadata !"", i32 0, i32 0, i64 0, i64 0, i64 0, i32 0, null, metadata !495, i32 0, i32 0} ; [ DW_TAG_subroutine_type ]
!495 = metadata !{null, metadata !444, metadata !496}
!496 = metadata !{i32 786454, null, metadata !"ap_slong", metadata !425, i32 167, i64 0, i64 0, i64 0, i32 0, metadata !497} ; [ DW_TAG_typedef ]
!497 = metadata !{i32 786468, null, metadata !"long long int", null, i32 0, i64 64, i64 64, i64 0, i32 0, i32 5} ; [ DW_TAG_base_type ]
!498 = metadata !{i32 786478, i32 0, metadata !424, metadata !"ap_int_base", metadata !"ap_int_base", metadata !"", metadata !425, i32 1568, metadata !499, i1 false, i1 false, i32 0, i32 0, null, i32 384, i1 false, null, null, i32 0, metadata !295, i32 1568} ; [ DW_TAG_subprogram ]
!499 = metadata !{i32 786453, i32 0, metadata !"", i32 0, i32 0, i64 0, i64 0, i64 0, i32 0, null, metadata !500, i32 0, i32 0} ; [ DW_TAG_subroutine_type ]
!500 = metadata !{null, metadata !444, metadata !501}
!501 = metadata !{i32 786454, null, metadata !"ap_ulong", metadata !425, i32 166, i64 0, i64 0, i64 0, i32 0, metadata !502} ; [ DW_TAG_typedef ]
!502 = metadata !{i32 786468, null, metadata !"long long unsigned int", null, i32 0, i64 64, i64 64, i64 0, i32 0, i32 7} ; [ DW_TAG_base_type ]
!503 = metadata !{i32 786478, i32 0, metadata !424, metadata !"ap_int_base", metadata !"ap_int_base", metadata !"", metadata !425, i32 1569, metadata !504, i1 false, i1 false, i32 0, i32 0, null, i32 384, i1 false, null, null, i32 0, metadata !295, i32 1569} ; [ DW_TAG_subprogram ]
!504 = metadata !{i32 786453, i32 0, metadata !"", i32 0, i32 0, i64 0, i64 0, i64 0, i32 0, null, metadata !505, i32 0, i32 0} ; [ DW_TAG_subroutine_type ]
!505 = metadata !{null, metadata !444, metadata !506}
!506 = metadata !{i32 786454, null, metadata !"half", metadata !425, i32 54, i64 0, i64 0, i64 0, i32 0, metadata !507} ; [ DW_TAG_typedef ]
!507 = metadata !{i32 786468, null, metadata !"half", null, i32 0, i64 16, i64 16, i64 0, i32 0, i32 4} ; [ DW_TAG_base_type ]
!508 = metadata !{i32 786478, i32 0, metadata !424, metadata !"ap_int_base", metadata !"ap_int_base", metadata !"", metadata !425, i32 1570, metadata !509, i1 false, i1 false, i32 0, i32 0, null, i32 384, i1 false, null, null, i32 0, metadata !295, i32 1570} ; [ DW_TAG_subprogram ]
!509 = metadata !{i32 786453, i32 0, metadata !"", i32 0, i32 0, i64 0, i64 0, i64 0, i32 0, null, metadata !510, i32 0, i32 0} ; [ DW_TAG_subroutine_type ]
!510 = metadata !{null, metadata !444, metadata !511}
!511 = metadata !{i32 786468, null, metadata !"float", null, i32 0, i64 32, i64 32, i64 0, i32 0, i32 4} ; [ DW_TAG_base_type ]
!512 = metadata !{i32 786478, i32 0, metadata !424, metadata !"ap_int_base", metadata !"ap_int_base", metadata !"", metadata !425, i32 1571, metadata !513, i1 false, i1 false, i32 0, i32 0, null, i32 384, i1 false, null, null, i32 0, metadata !295, i32 1571} ; [ DW_TAG_subprogram ]
!513 = metadata !{i32 786453, i32 0, metadata !"", i32 0, i32 0, i64 0, i64 0, i64 0, i32 0, null, metadata !514, i32 0, i32 0} ; [ DW_TAG_subroutine_type ]
!514 = metadata !{null, metadata !444, metadata !515}
!515 = metadata !{i32 786468, null, metadata !"double", null, i32 0, i64 64, i64 64, i64 0, i32 0, i32 4} ; [ DW_TAG_base_type ]
!516 = metadata !{i32 786478, i32 0, metadata !424, metadata !"ap_int_base", metadata !"ap_int_base", metadata !"", metadata !425, i32 1598, metadata !517, i1 false, i1 false, i32 0, i32 0, null, i32 256, i1 false, null, null, i32 0, metadata !295, i32 1598} ; [ DW_TAG_subprogram ]
!517 = metadata !{i32 786453, i32 0, metadata !"", i32 0, i32 0, i64 0, i64 0, i64 0, i32 0, null, metadata !518, i32 0, i32 0} ; [ DW_TAG_subroutine_type ]
!518 = metadata !{null, metadata !444, metadata !338}
!519 = metadata !{i32 786478, i32 0, metadata !424, metadata !"ap_int_base", metadata !"ap_int_base", metadata !"", metadata !425, i32 1605, metadata !520, i1 false, i1 false, i32 0, i32 0, null, i32 256, i1 false, null, null, i32 0, metadata !295, i32 1605} ; [ DW_TAG_subprogram ]
!520 = metadata !{i32 786453, i32 0, metadata !"", i32 0, i32 0, i64 0, i64 0, i64 0, i32 0, null, metadata !521, i32 0, i32 0} ; [ DW_TAG_subroutine_type ]
!521 = metadata !{null, metadata !444, metadata !338, metadata !465}
!522 = metadata !{i32 786478, i32 0, metadata !424, metadata !"read", metadata !"read", metadata !"_ZNV11ap_int_baseILi10ELb0ELb1EE4readEv", metadata !425, i32 1632, metadata !523, i1 false, i1 false, i32 0, i32 0, null, i32 256, i1 false, null, null, i32 0, metadata !295, i32 1632} ; [ DW_TAG_subprogram ]
!523 = metadata !{i32 786453, i32 0, metadata !"", i32 0, i32 0, i64 0, i64 0, i64 0, i32 0, null, metadata !524, i32 0, i32 0} ; [ DW_TAG_subroutine_type ]
!524 = metadata !{metadata !424, metadata !525}
!525 = metadata !{i32 786447, i32 0, metadata !"", i32 0, i32 0, i64 64, i64 64, i64 0, i32 64, metadata !458} ; [ DW_TAG_pointer_type ]
!526 = metadata !{i32 786478, i32 0, metadata !424, metadata !"write", metadata !"write", metadata !"_ZNV11ap_int_baseILi10ELb0ELb1EE5writeERKS0_", metadata !425, i32 1638, metadata !527, i1 false, i1 false, i32 0, i32 0, null, i32 256, i1 false, null, null, i32 0, metadata !295, i32 1638} ; [ DW_TAG_subprogram ]
!527 = metadata !{i32 786453, i32 0, metadata !"", i32 0, i32 0, i64 0, i64 0, i64 0, i32 0, null, metadata !528, i32 0, i32 0} ; [ DW_TAG_subroutine_type ]
!528 = metadata !{null, metadata !525, metadata !448}
!529 = metadata !{i32 786478, i32 0, metadata !424, metadata !"operator=", metadata !"operator=", metadata !"_ZNV11ap_int_baseILi10ELb0ELb1EEaSERVKS0_", metadata !425, i32 1650, metadata !530, i1 false, i1 false, i32 0, i32 0, null, i32 256, i1 false, null, null, i32 0, metadata !295, i32 1650} ; [ DW_TAG_subprogram ]
!530 = metadata !{i32 786453, i32 0, metadata !"", i32 0, i32 0, i64 0, i64 0, i64 0, i32 0, null, metadata !531, i32 0, i32 0} ; [ DW_TAG_subroutine_type ]
!531 = metadata !{null, metadata !525, metadata !456}
!532 = metadata !{i32 786478, i32 0, metadata !424, metadata !"operator=", metadata !"operator=", metadata !"_ZNV11ap_int_baseILi10ELb0ELb1EEaSERKS0_", metadata !425, i32 1659, metadata !527, i1 false, i1 false, i32 0, i32 0, null, i32 256, i1 false, null, null, i32 0, metadata !295, i32 1659} ; [ DW_TAG_subprogram ]
!533 = metadata !{i32 786478, i32 0, metadata !424, metadata !"operator=", metadata !"operator=", metadata !"_ZN11ap_int_baseILi10ELb0ELb1EEaSERVKS0_", metadata !425, i32 1682, metadata !534, i1 false, i1 false, i32 0, i32 0, null, i32 256, i1 false, null, null, i32 0, metadata !295, i32 1682} ; [ DW_TAG_subprogram ]
!534 = metadata !{i32 786453, i32 0, metadata !"", i32 0, i32 0, i64 0, i64 0, i64 0, i32 0, null, metadata !535, i32 0, i32 0} ; [ DW_TAG_subroutine_type ]
!535 = metadata !{metadata !536, metadata !444, metadata !456}
!536 = metadata !{i32 786448, null, null, null, i32 0, i64 0, i64 0, i64 0, i32 0, metadata !424} ; [ DW_TAG_reference_type ]
!537 = metadata !{i32 786478, i32 0, metadata !424, metadata !"operator=", metadata !"operator=", metadata !"_ZN11ap_int_baseILi10ELb0ELb1EEaSERKS0_", metadata !425, i32 1687, metadata !538, i1 false, i1 false, i32 0, i32 0, null, i32 256, i1 false, null, null, i32 0, metadata !295, i32 1687} ; [ DW_TAG_subprogram ]
!538 = metadata !{i32 786453, i32 0, metadata !"", i32 0, i32 0, i64 0, i64 0, i64 0, i32 0, null, metadata !539, i32 0, i32 0} ; [ DW_TAG_subroutine_type ]
!539 = metadata !{metadata !536, metadata !444, metadata !448}
!540 = metadata !{i32 786478, i32 0, metadata !424, metadata !"operator=", metadata !"operator=", metadata !"_ZN11ap_int_baseILi10ELb0ELb1EEaSEPKc", metadata !425, i32 1691, metadata !541, i1 false, i1 false, i32 0, i32 0, null, i32 256, i1 false, null, null, i32 0, metadata !295, i32 1691} ; [ DW_TAG_subprogram ]
!541 = metadata !{i32 786453, i32 0, metadata !"", i32 0, i32 0, i64 0, i64 0, i64 0, i32 0, null, metadata !542, i32 0, i32 0} ; [ DW_TAG_subroutine_type ]
!542 = metadata !{metadata !536, metadata !444, metadata !338}
!543 = metadata !{i32 786478, i32 0, metadata !424, metadata !"set", metadata !"set", metadata !"_ZN11ap_int_baseILi10ELb0ELb1EE3setEPKca", metadata !425, i32 1699, metadata !544, i1 false, i1 false, i32 0, i32 0, null, i32 256, i1 false, null, null, i32 0, metadata !295, i32 1699} ; [ DW_TAG_subprogram ]
!544 = metadata !{i32 786453, i32 0, metadata !"", i32 0, i32 0, i64 0, i64 0, i64 0, i32 0, null, metadata !545, i32 0, i32 0} ; [ DW_TAG_subroutine_type ]
!545 = metadata !{metadata !536, metadata !444, metadata !338, metadata !465}
!546 = metadata !{i32 786478, i32 0, metadata !424, metadata !"operator=", metadata !"operator=", metadata !"_ZN11ap_int_baseILi10ELb0ELb1EEaSEa", metadata !425, i32 1713, metadata !547, i1 false, i1 false, i32 0, i32 0, null, i32 256, i1 false, null, null, i32 0, metadata !295, i32 1713} ; [ DW_TAG_subprogram ]
!547 = metadata !{i32 786453, i32 0, metadata !"", i32 0, i32 0, i64 0, i64 0, i64 0, i32 0, null, metadata !548, i32 0, i32 0} ; [ DW_TAG_subroutine_type ]
!548 = metadata !{metadata !536, metadata !444, metadata !465}
!549 = metadata !{i32 786478, i32 0, metadata !424, metadata !"operator=", metadata !"operator=", metadata !"_ZN11ap_int_baseILi10ELb0ELb1EEaSEh", metadata !425, i32 1714, metadata !550, i1 false, i1 false, i32 0, i32 0, null, i32 256, i1 false, null, null, i32 0, metadata !295, i32 1714} ; [ DW_TAG_subprogram ]
!550 = metadata !{i32 786453, i32 0, metadata !"", i32 0, i32 0, i64 0, i64 0, i64 0, i32 0, null, metadata !551, i32 0, i32 0} ; [ DW_TAG_subroutine_type ]
!551 = metadata !{metadata !536, metadata !444, metadata !469}
!552 = metadata !{i32 786478, i32 0, metadata !424, metadata !"operator=", metadata !"operator=", metadata !"_ZN11ap_int_baseILi10ELb0ELb1EEaSEs", metadata !425, i32 1715, metadata !553, i1 false, i1 false, i32 0, i32 0, null, i32 256, i1 false, null, null, i32 0, metadata !295, i32 1715} ; [ DW_TAG_subprogram ]
!553 = metadata !{i32 786453, i32 0, metadata !"", i32 0, i32 0, i64 0, i64 0, i64 0, i32 0, null, metadata !554, i32 0, i32 0} ; [ DW_TAG_subroutine_type ]
!554 = metadata !{metadata !536, metadata !444, metadata !473}
!555 = metadata !{i32 786478, i32 0, metadata !424, metadata !"operator=", metadata !"operator=", metadata !"_ZN11ap_int_baseILi10ELb0ELb1EEaSEt", metadata !425, i32 1716, metadata !556, i1 false, i1 false, i32 0, i32 0, null, i32 256, i1 false, null, null, i32 0, metadata !295, i32 1716} ; [ DW_TAG_subprogram ]
!556 = metadata !{i32 786453, i32 0, metadata !"", i32 0, i32 0, i64 0, i64 0, i64 0, i32 0, null, metadata !557, i32 0, i32 0} ; [ DW_TAG_subroutine_type ]
!557 = metadata !{metadata !536, metadata !444, metadata !477}
!558 = metadata !{i32 786478, i32 0, metadata !424, metadata !"operator=", metadata !"operator=", metadata !"_ZN11ap_int_baseILi10ELb0ELb1EEaSEi", metadata !425, i32 1717, metadata !559, i1 false, i1 false, i32 0, i32 0, null, i32 256, i1 false, null, null, i32 0, metadata !295, i32 1717} ; [ DW_TAG_subprogram ]
!559 = metadata !{i32 786453, i32 0, metadata !"", i32 0, i32 0, i64 0, i64 0, i64 0, i32 0, null, metadata !560, i32 0, i32 0} ; [ DW_TAG_subroutine_type ]
!560 = metadata !{metadata !536, metadata !444, metadata !439}
!561 = metadata !{i32 786478, i32 0, metadata !424, metadata !"operator=", metadata !"operator=", metadata !"_ZN11ap_int_baseILi10ELb0ELb1EEaSEj", metadata !425, i32 1718, metadata !562, i1 false, i1 false, i32 0, i32 0, null, i32 256, i1 false, null, null, i32 0, metadata !295, i32 1718} ; [ DW_TAG_subprogram ]
!562 = metadata !{i32 786453, i32 0, metadata !"", i32 0, i32 0, i64 0, i64 0, i64 0, i32 0, null, metadata !563, i32 0, i32 0} ; [ DW_TAG_subroutine_type ]
!563 = metadata !{metadata !536, metadata !444, metadata !484}
!564 = metadata !{i32 786478, i32 0, metadata !424, metadata !"operator=", metadata !"operator=", metadata !"_ZN11ap_int_baseILi10ELb0ELb1EEaSEx", metadata !425, i32 1719, metadata !565, i1 false, i1 false, i32 0, i32 0, null, i32 256, i1 false, null, null, i32 0, metadata !295, i32 1719} ; [ DW_TAG_subprogram ]
!565 = metadata !{i32 786453, i32 0, metadata !"", i32 0, i32 0, i64 0, i64 0, i64 0, i32 0, null, metadata !566, i32 0, i32 0} ; [ DW_TAG_subroutine_type ]
!566 = metadata !{metadata !536, metadata !444, metadata !496}
!567 = metadata !{i32 786478, i32 0, metadata !424, metadata !"operator=", metadata !"operator=", metadata !"_ZN11ap_int_baseILi10ELb0ELb1EEaSEy", metadata !425, i32 1720, metadata !568, i1 false, i1 false, i32 0, i32 0, null, i32 256, i1 false, null, null, i32 0, metadata !295, i32 1720} ; [ DW_TAG_subprogram ]
!568 = metadata !{i32 786453, i32 0, metadata !"", i32 0, i32 0, i64 0, i64 0, i64 0, i32 0, null, metadata !569, i32 0, i32 0} ; [ DW_TAG_subroutine_type ]
!569 = metadata !{metadata !536, metadata !444, metadata !501}
!570 = metadata !{i32 786478, i32 0, metadata !424, metadata !"operator unsigned short", metadata !"operator unsigned short", metadata !"_ZNK11ap_int_baseILi10ELb0ELb1EEcvtEv", metadata !425, i32 1758, metadata !571, i1 false, i1 false, i32 0, i32 0, null, i32 256, i1 false, null, null, i32 0, metadata !295, i32 1758} ; [ DW_TAG_subprogram ]
!571 = metadata !{i32 786453, i32 0, metadata !"", i32 0, i32 0, i64 0, i64 0, i64 0, i32 0, null, metadata !572, i32 0, i32 0} ; [ DW_TAG_subroutine_type ]
!572 = metadata !{metadata !573, metadata !578}
!573 = metadata !{i32 786454, metadata !424, metadata !"RetType", metadata !425, i32 1500, i64 0, i64 0, i64 0, i32 0, metadata !574} ; [ DW_TAG_typedef ]
!574 = metadata !{i32 786454, metadata !575, metadata !"Type", metadata !425, i32 1474, i64 0, i64 0, i64 0, i32 0, metadata !477} ; [ DW_TAG_typedef ]
!575 = metadata !{i32 786434, null, metadata !"retval<2, false>", metadata !425, i32 1473, i64 8, i64 8, i32 0, i32 0, null, metadata !351, i32 0, null, metadata !576} ; [ DW_TAG_class_type ]
!576 = metadata !{metadata !577, metadata !440}
!577 = metadata !{i32 786480, null, metadata !"_AP_N", metadata !439, i64 2, null, i32 0, i32 0} ; [ DW_TAG_template_value_parameter ]
!578 = metadata !{i32 786447, i32 0, metadata !"", i32 0, i32 0, i64 64, i64 64, i64 0, i32 64, metadata !449} ; [ DW_TAG_pointer_type ]
!579 = metadata !{i32 786478, i32 0, metadata !424, metadata !"to_bool", metadata !"to_bool", metadata !"_ZNK11ap_int_baseILi10ELb0ELb1EE7to_boolEv", metadata !425, i32 1764, metadata !580, i1 false, i1 false, i32 0, i32 0, null, i32 256, i1 false, null, null, i32 0, metadata !295, i32 1764} ; [ DW_TAG_subprogram ]
!580 = metadata !{i32 786453, i32 0, metadata !"", i32 0, i32 0, i64 0, i64 0, i64 0, i32 0, null, metadata !581, i32 0, i32 0} ; [ DW_TAG_subroutine_type ]
!581 = metadata !{metadata !309, metadata !578}
!582 = metadata !{i32 786478, i32 0, metadata !424, metadata !"to_uchar", metadata !"to_uchar", metadata !"_ZNK11ap_int_baseILi10ELb0ELb1EE8to_ucharEv", metadata !425, i32 1765, metadata !583, i1 false, i1 false, i32 0, i32 0, null, i32 256, i1 false, null, null, i32 0, metadata !295, i32 1765} ; [ DW_TAG_subprogram ]
!583 = metadata !{i32 786453, i32 0, metadata !"", i32 0, i32 0, i64 0, i64 0, i64 0, i32 0, null, metadata !584, i32 0, i32 0} ; [ DW_TAG_subroutine_type ]
!584 = metadata !{metadata !469, metadata !578}
!585 = metadata !{i32 786478, i32 0, metadata !424, metadata !"to_char", metadata !"to_char", metadata !"_ZNK11ap_int_baseILi10ELb0ELb1EE7to_charEv", metadata !425, i32 1766, metadata !586, i1 false, i1 false, i32 0, i32 0, null, i32 256, i1 false, null, null, i32 0, metadata !295, i32 1766} ; [ DW_TAG_subprogram ]
!586 = metadata !{i32 786453, i32 0, metadata !"", i32 0, i32 0, i64 0, i64 0, i64 0, i32 0, null, metadata !587, i32 0, i32 0} ; [ DW_TAG_subroutine_type ]
!587 = metadata !{metadata !465, metadata !578}
!588 = metadata !{i32 786478, i32 0, metadata !424, metadata !"to_ushort", metadata !"to_ushort", metadata !"_ZNK11ap_int_baseILi10ELb0ELb1EE9to_ushortEv", metadata !425, i32 1767, metadata !589, i1 false, i1 false, i32 0, i32 0, null, i32 256, i1 false, null, null, i32 0, metadata !295, i32 1767} ; [ DW_TAG_subprogram ]
!589 = metadata !{i32 786453, i32 0, metadata !"", i32 0, i32 0, i64 0, i64 0, i64 0, i32 0, null, metadata !590, i32 0, i32 0} ; [ DW_TAG_subroutine_type ]
!590 = metadata !{metadata !477, metadata !578}
!591 = metadata !{i32 786478, i32 0, metadata !424, metadata !"to_short", metadata !"to_short", metadata !"_ZNK11ap_int_baseILi10ELb0ELb1EE8to_shortEv", metadata !425, i32 1768, metadata !592, i1 false, i1 false, i32 0, i32 0, null, i32 256, i1 false, null, null, i32 0, metadata !295, i32 1768} ; [ DW_TAG_subprogram ]
!592 = metadata !{i32 786453, i32 0, metadata !"", i32 0, i32 0, i64 0, i64 0, i64 0, i32 0, null, metadata !593, i32 0, i32 0} ; [ DW_TAG_subroutine_type ]
!593 = metadata !{metadata !473, metadata !578}
!594 = metadata !{i32 786478, i32 0, metadata !424, metadata !"to_int", metadata !"to_int", metadata !"_ZNK11ap_int_baseILi10ELb0ELb1EE6to_intEv", metadata !425, i32 1769, metadata !595, i1 false, i1 false, i32 0, i32 0, null, i32 256, i1 false, null, null, i32 0, metadata !295, i32 1769} ; [ DW_TAG_subprogram ]
!595 = metadata !{i32 786453, i32 0, metadata !"", i32 0, i32 0, i64 0, i64 0, i64 0, i32 0, null, metadata !596, i32 0, i32 0} ; [ DW_TAG_subroutine_type ]
!596 = metadata !{metadata !439, metadata !578}
!597 = metadata !{i32 786478, i32 0, metadata !424, metadata !"to_uint", metadata !"to_uint", metadata !"_ZNK11ap_int_baseILi10ELb0ELb1EE7to_uintEv", metadata !425, i32 1770, metadata !598, i1 false, i1 false, i32 0, i32 0, null, i32 256, i1 false, null, null, i32 0, metadata !295, i32 1770} ; [ DW_TAG_subprogram ]
!598 = metadata !{i32 786453, i32 0, metadata !"", i32 0, i32 0, i64 0, i64 0, i64 0, i32 0, null, metadata !599, i32 0, i32 0} ; [ DW_TAG_subroutine_type ]
!599 = metadata !{metadata !484, metadata !578}
!600 = metadata !{i32 786478, i32 0, metadata !424, metadata !"to_long", metadata !"to_long", metadata !"_ZNK11ap_int_baseILi10ELb0ELb1EE7to_longEv", metadata !425, i32 1771, metadata !601, i1 false, i1 false, i32 0, i32 0, null, i32 256, i1 false, null, null, i32 0, metadata !295, i32 1771} ; [ DW_TAG_subprogram ]
!601 = metadata !{i32 786453, i32 0, metadata !"", i32 0, i32 0, i64 0, i64 0, i64 0, i32 0, null, metadata !602, i32 0, i32 0} ; [ DW_TAG_subroutine_type ]
!602 = metadata !{metadata !488, metadata !578}
!603 = metadata !{i32 786478, i32 0, metadata !424, metadata !"to_ulong", metadata !"to_ulong", metadata !"_ZNK11ap_int_baseILi10ELb0ELb1EE8to_ulongEv", metadata !425, i32 1772, metadata !604, i1 false, i1 false, i32 0, i32 0, null, i32 256, i1 false, null, null, i32 0, metadata !295, i32 1772} ; [ DW_TAG_subprogram ]
!604 = metadata !{i32 786453, i32 0, metadata !"", i32 0, i32 0, i64 0, i64 0, i64 0, i32 0, null, metadata !605, i32 0, i32 0} ; [ DW_TAG_subroutine_type ]
!605 = metadata !{metadata !492, metadata !578}
!606 = metadata !{i32 786478, i32 0, metadata !424, metadata !"to_int64", metadata !"to_int64", metadata !"_ZNK11ap_int_baseILi10ELb0ELb1EE8to_int64Ev", metadata !425, i32 1773, metadata !607, i1 false, i1 false, i32 0, i32 0, null, i32 256, i1 false, null, null, i32 0, metadata !295, i32 1773} ; [ DW_TAG_subprogram ]
!607 = metadata !{i32 786453, i32 0, metadata !"", i32 0, i32 0, i64 0, i64 0, i64 0, i32 0, null, metadata !608, i32 0, i32 0} ; [ DW_TAG_subroutine_type ]
!608 = metadata !{metadata !496, metadata !578}
!609 = metadata !{i32 786478, i32 0, metadata !424, metadata !"to_uint64", metadata !"to_uint64", metadata !"_ZNK11ap_int_baseILi10ELb0ELb1EE9to_uint64Ev", metadata !425, i32 1774, metadata !610, i1 false, i1 false, i32 0, i32 0, null, i32 256, i1 false, null, null, i32 0, metadata !295, i32 1774} ; [ DW_TAG_subprogram ]
!610 = metadata !{i32 786453, i32 0, metadata !"", i32 0, i32 0, i64 0, i64 0, i64 0, i32 0, null, metadata !611, i32 0, i32 0} ; [ DW_TAG_subroutine_type ]
!611 = metadata !{metadata !501, metadata !578}
!612 = metadata !{i32 786478, i32 0, metadata !424, metadata !"to_double", metadata !"to_double", metadata !"_ZNK11ap_int_baseILi10ELb0ELb1EE9to_doubleEv", metadata !425, i32 1775, metadata !613, i1 false, i1 false, i32 0, i32 0, null, i32 256, i1 false, null, null, i32 0, metadata !295, i32 1775} ; [ DW_TAG_subprogram ]
!613 = metadata !{i32 786453, i32 0, metadata !"", i32 0, i32 0, i64 0, i64 0, i64 0, i32 0, null, metadata !614, i32 0, i32 0} ; [ DW_TAG_subroutine_type ]
!614 = metadata !{metadata !515, metadata !578}
!615 = metadata !{i32 786478, i32 0, metadata !424, metadata !"length", metadata !"length", metadata !"_ZNK11ap_int_baseILi10ELb0ELb1EE6lengthEv", metadata !425, i32 1789, metadata !595, i1 false, i1 false, i32 0, i32 0, null, i32 256, i1 false, null, null, i32 0, metadata !295, i32 1789} ; [ DW_TAG_subprogram ]
!616 = metadata !{i32 786478, i32 0, metadata !424, metadata !"length", metadata !"length", metadata !"_ZNVK11ap_int_baseILi10ELb0ELb1EE6lengthEv", metadata !425, i32 1790, metadata !617, i1 false, i1 false, i32 0, i32 0, null, i32 256, i1 false, null, null, i32 0, metadata !295, i32 1790} ; [ DW_TAG_subprogram ]
!617 = metadata !{i32 786453, i32 0, metadata !"", i32 0, i32 0, i64 0, i64 0, i64 0, i32 0, null, metadata !618, i32 0, i32 0} ; [ DW_TAG_subroutine_type ]
!618 = metadata !{metadata !439, metadata !619}
!619 = metadata !{i32 786447, i32 0, metadata !"", i32 0, i32 0, i64 64, i64 64, i64 0, i32 64, metadata !457} ; [ DW_TAG_pointer_type ]
!620 = metadata !{i32 786478, i32 0, metadata !424, metadata !"reverse", metadata !"reverse", metadata !"_ZN11ap_int_baseILi10ELb0ELb1EE7reverseEv", metadata !425, i32 1795, metadata !621, i1 false, i1 false, i32 0, i32 0, null, i32 256, i1 false, null, null, i32 0, metadata !295, i32 1795} ; [ DW_TAG_subprogram ]
!621 = metadata !{i32 786453, i32 0, metadata !"", i32 0, i32 0, i64 0, i64 0, i64 0, i32 0, null, metadata !622, i32 0, i32 0} ; [ DW_TAG_subroutine_type ]
!622 = metadata !{metadata !536, metadata !444}
!623 = metadata !{i32 786478, i32 0, metadata !424, metadata !"iszero", metadata !"iszero", metadata !"_ZNK11ap_int_baseILi10ELb0ELb1EE6iszeroEv", metadata !425, i32 1801, metadata !580, i1 false, i1 false, i32 0, i32 0, null, i32 256, i1 false, null, null, i32 0, metadata !295, i32 1801} ; [ DW_TAG_subprogram ]
!624 = metadata !{i32 786478, i32 0, metadata !424, metadata !"is_zero", metadata !"is_zero", metadata !"_ZNK11ap_int_baseILi10ELb0ELb1EE7is_zeroEv", metadata !425, i32 1806, metadata !580, i1 false, i1 false, i32 0, i32 0, null, i32 256, i1 false, null, null, i32 0, metadata !295, i32 1806} ; [ DW_TAG_subprogram ]
!625 = metadata !{i32 786478, i32 0, metadata !424, metadata !"sign", metadata !"sign", metadata !"_ZNK11ap_int_baseILi10ELb0ELb1EE4signEv", metadata !425, i32 1811, metadata !580, i1 false, i1 false, i32 0, i32 0, null, i32 256, i1 false, null, null, i32 0, metadata !295, i32 1811} ; [ DW_TAG_subprogram ]
!626 = metadata !{i32 786478, i32 0, metadata !424, metadata !"clear", metadata !"clear", metadata !"_ZN11ap_int_baseILi10ELb0ELb1EE5clearEi", metadata !425, i32 1819, metadata !479, i1 false, i1 false, i32 0, i32 0, null, i32 256, i1 false, null, null, i32 0, metadata !295, i32 1819} ; [ DW_TAG_subprogram ]
!627 = metadata !{i32 786478, i32 0, metadata !424, metadata !"invert", metadata !"invert", metadata !"_ZN11ap_int_baseILi10ELb0ELb1EE6invertEi", metadata !425, i32 1825, metadata !479, i1 false, i1 false, i32 0, i32 0, null, i32 256, i1 false, null, null, i32 0, metadata !295, i32 1825} ; [ DW_TAG_subprogram ]
!628 = metadata !{i32 786478, i32 0, metadata !424, metadata !"test", metadata !"test", metadata !"_ZNK11ap_int_baseILi10ELb0ELb1EE4testEi", metadata !425, i32 1833, metadata !629, i1 false, i1 false, i32 0, i32 0, null, i32 256, i1 false, null, null, i32 0, metadata !295, i32 1833} ; [ DW_TAG_subprogram ]
!629 = metadata !{i32 786453, i32 0, metadata !"", i32 0, i32 0, i64 0, i64 0, i64 0, i32 0, null, metadata !630, i32 0, i32 0} ; [ DW_TAG_subroutine_type ]
!630 = metadata !{metadata !309, metadata !578, metadata !439}
!631 = metadata !{i32 786478, i32 0, metadata !424, metadata !"set", metadata !"set", metadata !"_ZN11ap_int_baseILi10ELb0ELb1EE3setEi", metadata !425, i32 1839, metadata !479, i1 false, i1 false, i32 0, i32 0, null, i32 256, i1 false, null, null, i32 0, metadata !295, i32 1839} ; [ DW_TAG_subprogram ]
!632 = metadata !{i32 786478, i32 0, metadata !424, metadata !"set", metadata !"set", metadata !"_ZN11ap_int_baseILi10ELb0ELb1EE3setEib", metadata !425, i32 1845, metadata !633, i1 false, i1 false, i32 0, i32 0, null, i32 256, i1 false, null, null, i32 0, metadata !295, i32 1845} ; [ DW_TAG_subprogram ]
!633 = metadata !{i32 786453, i32 0, metadata !"", i32 0, i32 0, i64 0, i64 0, i64 0, i32 0, null, metadata !634, i32 0, i32 0} ; [ DW_TAG_subroutine_type ]
!634 = metadata !{null, metadata !444, metadata !439, metadata !309}
!635 = metadata !{i32 786478, i32 0, metadata !424, metadata !"lrotate", metadata !"lrotate", metadata !"_ZN11ap_int_baseILi10ELb0ELb1EE7lrotateEi", metadata !425, i32 1852, metadata !479, i1 false, i1 false, i32 0, i32 0, null, i32 256, i1 false, null, null, i32 0, metadata !295, i32 1852} ; [ DW_TAG_subprogram ]
!636 = metadata !{i32 786478, i32 0, metadata !424, metadata !"rrotate", metadata !"rrotate", metadata !"_ZN11ap_int_baseILi10ELb0ELb1EE7rrotateEi", metadata !425, i32 1861, metadata !479, i1 false, i1 false, i32 0, i32 0, null, i32 256, i1 false, null, null, i32 0, metadata !295, i32 1861} ; [ DW_TAG_subprogram ]
!637 = metadata !{i32 786478, i32 0, metadata !424, metadata !"set_bit", metadata !"set_bit", metadata !"_ZN11ap_int_baseILi10ELb0ELb1EE7set_bitEib", metadata !425, i32 1869, metadata !633, i1 false, i1 false, i32 0, i32 0, null, i32 256, i1 false, null, null, i32 0, metadata !295, i32 1869} ; [ DW_TAG_subprogram ]
!638 = metadata !{i32 786478, i32 0, metadata !424, metadata !"get_bit", metadata !"get_bit", metadata !"_ZNK11ap_int_baseILi10ELb0ELb1EE7get_bitEi", metadata !425, i32 1874, metadata !629, i1 false, i1 false, i32 0, i32 0, null, i32 256, i1 false, null, null, i32 0, metadata !295, i32 1874} ; [ DW_TAG_subprogram ]
!639 = metadata !{i32 786478, i32 0, metadata !424, metadata !"b_not", metadata !"b_not", metadata !"_ZN11ap_int_baseILi10ELb0ELb1EE5b_notEv", metadata !425, i32 1879, metadata !442, i1 false, i1 false, i32 0, i32 0, null, i32 256, i1 false, null, null, i32 0, metadata !295, i32 1879} ; [ DW_TAG_subprogram ]
!640 = metadata !{i32 786478, i32 0, metadata !424, metadata !"countLeadingZeros", metadata !"countLeadingZeros", metadata !"_ZN11ap_int_baseILi10ELb0ELb1EE17countLeadingZerosEv", metadata !425, i32 1886, metadata !641, i1 false, i1 false, i32 0, i32 0, null, i32 256, i1 false, null, null, i32 0, metadata !295, i32 1886} ; [ DW_TAG_subprogram ]
!641 = metadata !{i32 786453, i32 0, metadata !"", i32 0, i32 0, i64 0, i64 0, i64 0, i32 0, null, metadata !642, i32 0, i32 0} ; [ DW_TAG_subroutine_type ]
!642 = metadata !{metadata !439, metadata !444}
!643 = metadata !{i32 786478, i32 0, metadata !424, metadata !"operator++", metadata !"operator++", metadata !"_ZN11ap_int_baseILi10ELb0ELb1EEppEv", metadata !425, i32 1943, metadata !621, i1 false, i1 false, i32 0, i32 0, null, i32 256, i1 false, null, null, i32 0, metadata !295, i32 1943} ; [ DW_TAG_subprogram ]
!644 = metadata !{i32 786478, i32 0, metadata !424, metadata !"operator--", metadata !"operator--", metadata !"_ZN11ap_int_baseILi10ELb0ELb1EEmmEv", metadata !425, i32 1947, metadata !621, i1 false, i1 false, i32 0, i32 0, null, i32 256, i1 false, null, null, i32 0, metadata !295, i32 1947} ; [ DW_TAG_subprogram ]
!645 = metadata !{i32 786478, i32 0, metadata !424, metadata !"operator++", metadata !"operator++", metadata !"_ZN11ap_int_baseILi10ELb0ELb1EEppEi", metadata !425, i32 1955, metadata !646, i1 false, i1 false, i32 0, i32 0, null, i32 256, i1 false, null, null, i32 0, metadata !295, i32 1955} ; [ DW_TAG_subprogram ]
!646 = metadata !{i32 786453, i32 0, metadata !"", i32 0, i32 0, i64 0, i64 0, i64 0, i32 0, null, metadata !647, i32 0, i32 0} ; [ DW_TAG_subroutine_type ]
!647 = metadata !{metadata !449, metadata !444, metadata !439}
!648 = metadata !{i32 786478, i32 0, metadata !424, metadata !"operator--", metadata !"operator--", metadata !"_ZN11ap_int_baseILi10ELb0ELb1EEmmEi", metadata !425, i32 1960, metadata !646, i1 false, i1 false, i32 0, i32 0, null, i32 256, i1 false, null, null, i32 0, metadata !295, i32 1960} ; [ DW_TAG_subprogram ]
!649 = metadata !{i32 786478, i32 0, metadata !424, metadata !"operator+", metadata !"operator+", metadata !"_ZNK11ap_int_baseILi10ELb0ELb1EEpsEv", metadata !425, i32 1969, metadata !650, i1 false, i1 false, i32 0, i32 0, null, i32 256, i1 false, null, null, i32 0, metadata !295, i32 1969} ; [ DW_TAG_subprogram ]
!650 = metadata !{i32 786453, i32 0, metadata !"", i32 0, i32 0, i64 0, i64 0, i64 0, i32 0, null, metadata !651, i32 0, i32 0} ; [ DW_TAG_subroutine_type ]
!651 = metadata !{metadata !424, metadata !578}
!652 = metadata !{i32 786478, i32 0, metadata !424, metadata !"operator!", metadata !"operator!", metadata !"_ZNK11ap_int_baseILi10ELb0ELb1EEntEv", metadata !425, i32 1975, metadata !580, i1 false, i1 false, i32 0, i32 0, null, i32 256, i1 false, null, null, i32 0, metadata !295, i32 1975} ; [ DW_TAG_subprogram ]
!653 = metadata !{i32 786478, i32 0, metadata !424, metadata !"operator-", metadata !"operator-", metadata !"_ZNK11ap_int_baseILi10ELb0ELb1EEngEv", metadata !425, i32 1980, metadata !654, i1 false, i1 false, i32 0, i32 0, null, i32 256, i1 false, null, null, i32 0, metadata !295, i32 1980} ; [ DW_TAG_subprogram ]
!654 = metadata !{i32 786453, i32 0, metadata !"", i32 0, i32 0, i64 0, i64 0, i64 0, i32 0, null, metadata !655, i32 0, i32 0} ; [ DW_TAG_subroutine_type ]
!655 = metadata !{metadata !656, metadata !578}
!656 = metadata !{i32 786434, null, metadata !"ap_int_base<11, true, true>", metadata !425, i32 1495, i64 16, i64 16, i32 0, i32 0, null, metadata !657, i32 0, null, metadata !1464} ; [ DW_TAG_class_type ]
!657 = metadata !{metadata !658, metadata !670, metadata !674, metadata !677, metadata !680, metadata !683, metadata !686, metadata !689, metadata !692, metadata !695, metadata !698, metadata !701, metadata !704, metadata !707, metadata !710, metadata !713, metadata !716, metadata !719, metadata !722, metadata !727, metadata !732, metadata !737, metadata !738, metadata !742, metadata !745, metadata !748, metadata !751, metadata !754, metadata !757, metadata !760, metadata !763, metadata !766, metadata !769, metadata !772, metadata !775, metadata !783, metadata !786, metadata !789, metadata !792, metadata !795, metadata !798, metadata !801, metadata !804, metadata !807, metadata !810, metadata !813, metadata !816, metadata !819, metadata !820, metadata !824, metadata !827, metadata !828, metadata !829, metadata !830, metadata !831, metadata !832, metadata !835, metadata !836, metadata !839, metadata !840, metadata !841, metadata !842, metadata !843, metadata !844, metadata !847, metadata !848, metadata !849, metadata !852, metadata !853, metadata !856, metadata !857, metadata !1423, metadata !1429, metadata !1430, metadata !1433, metadata !1434, metadata !1438, metadata !1439, metadata !1440, metadata !1441, metadata !1444, metadata !1445, metadata !1446, metadata !1447, metadata !1448, metadata !1449, metadata !1450, metadata !1451, metadata !1452, metadata !1453, metadata !1454, metadata !1455, metadata !1458, metadata !1461}
!658 = metadata !{i32 786460, metadata !656, null, metadata !425, i32 0, i64 0, i64 0, i64 0, i32 0, metadata !659} ; [ DW_TAG_inheritance ]
!659 = metadata !{i32 786434, null, metadata !"ssdm_int<11 + 1024 * 0, true>", metadata !429, i32 23, i64 16, i64 16, i32 0, i32 0, null, metadata !660, i32 0, null, metadata !667} ; [ DW_TAG_class_type ]
!660 = metadata !{metadata !661, metadata !663}
!661 = metadata !{i32 786445, metadata !659, metadata !"V", metadata !429, i32 23, i64 11, i64 16, i64 0, i32 0, metadata !662} ; [ DW_TAG_member ]
!662 = metadata !{i32 786468, null, metadata !"int11", null, i32 0, i64 11, i64 16, i64 0, i32 0, i32 5} ; [ DW_TAG_base_type ]
!663 = metadata !{i32 786478, i32 0, metadata !659, metadata !"ssdm_int", metadata !"ssdm_int", metadata !"", metadata !429, i32 23, metadata !664, i1 false, i1 false, i32 0, i32 0, null, i32 256, i1 false, null, null, i32 0, metadata !295, i32 23} ; [ DW_TAG_subprogram ]
!664 = metadata !{i32 786453, i32 0, metadata !"", i32 0, i32 0, i64 0, i64 0, i64 0, i32 0, null, metadata !665, i32 0, i32 0} ; [ DW_TAG_subroutine_type ]
!665 = metadata !{null, metadata !666}
!666 = metadata !{i32 786447, i32 0, metadata !"", i32 0, i32 0, i64 64, i64 64, i64 0, i32 64, metadata !659} ; [ DW_TAG_pointer_type ]
!667 = metadata !{metadata !668, metadata !669}
!668 = metadata !{i32 786480, null, metadata !"_AP_N", metadata !439, i64 11, null, i32 0, i32 0} ; [ DW_TAG_template_value_parameter ]
!669 = metadata !{i32 786480, null, metadata !"_AP_S", metadata !309, i64 1, null, i32 0, i32 0} ; [ DW_TAG_template_value_parameter ]
!670 = metadata !{i32 786478, i32 0, metadata !656, metadata !"ap_int_base", metadata !"ap_int_base", metadata !"", metadata !425, i32 1536, metadata !671, i1 false, i1 false, i32 0, i32 0, null, i32 256, i1 false, null, null, i32 0, metadata !295, i32 1536} ; [ DW_TAG_subprogram ]
!671 = metadata !{i32 786453, i32 0, metadata !"", i32 0, i32 0, i64 0, i64 0, i64 0, i32 0, null, metadata !672, i32 0, i32 0} ; [ DW_TAG_subroutine_type ]
!672 = metadata !{null, metadata !673}
!673 = metadata !{i32 786447, i32 0, metadata !"", i32 0, i32 0, i64 64, i64 64, i64 0, i32 64, metadata !656} ; [ DW_TAG_pointer_type ]
!674 = metadata !{i32 786478, i32 0, metadata !656, metadata !"ap_int_base", metadata !"ap_int_base", metadata !"", metadata !425, i32 1558, metadata !675, i1 false, i1 false, i32 0, i32 0, null, i32 384, i1 false, null, null, i32 0, metadata !295, i32 1558} ; [ DW_TAG_subprogram ]
!675 = metadata !{i32 786453, i32 0, metadata !"", i32 0, i32 0, i64 0, i64 0, i64 0, i32 0, null, metadata !676, i32 0, i32 0} ; [ DW_TAG_subroutine_type ]
!676 = metadata !{null, metadata !673, metadata !309}
!677 = metadata !{i32 786478, i32 0, metadata !656, metadata !"ap_int_base", metadata !"ap_int_base", metadata !"", metadata !425, i32 1559, metadata !678, i1 false, i1 false, i32 0, i32 0, null, i32 384, i1 false, null, null, i32 0, metadata !295, i32 1559} ; [ DW_TAG_subprogram ]
!678 = metadata !{i32 786453, i32 0, metadata !"", i32 0, i32 0, i64 0, i64 0, i64 0, i32 0, null, metadata !679, i32 0, i32 0} ; [ DW_TAG_subroutine_type ]
!679 = metadata !{null, metadata !673, metadata !465}
!680 = metadata !{i32 786478, i32 0, metadata !656, metadata !"ap_int_base", metadata !"ap_int_base", metadata !"", metadata !425, i32 1560, metadata !681, i1 false, i1 false, i32 0, i32 0, null, i32 384, i1 false, null, null, i32 0, metadata !295, i32 1560} ; [ DW_TAG_subprogram ]
!681 = metadata !{i32 786453, i32 0, metadata !"", i32 0, i32 0, i64 0, i64 0, i64 0, i32 0, null, metadata !682, i32 0, i32 0} ; [ DW_TAG_subroutine_type ]
!682 = metadata !{null, metadata !673, metadata !469}
!683 = metadata !{i32 786478, i32 0, metadata !656, metadata !"ap_int_base", metadata !"ap_int_base", metadata !"", metadata !425, i32 1561, metadata !684, i1 false, i1 false, i32 0, i32 0, null, i32 384, i1 false, null, null, i32 0, metadata !295, i32 1561} ; [ DW_TAG_subprogram ]
!684 = metadata !{i32 786453, i32 0, metadata !"", i32 0, i32 0, i64 0, i64 0, i64 0, i32 0, null, metadata !685, i32 0, i32 0} ; [ DW_TAG_subroutine_type ]
!685 = metadata !{null, metadata !673, metadata !473}
!686 = metadata !{i32 786478, i32 0, metadata !656, metadata !"ap_int_base", metadata !"ap_int_base", metadata !"", metadata !425, i32 1562, metadata !687, i1 false, i1 false, i32 0, i32 0, null, i32 384, i1 false, null, null, i32 0, metadata !295, i32 1562} ; [ DW_TAG_subprogram ]
!687 = metadata !{i32 786453, i32 0, metadata !"", i32 0, i32 0, i64 0, i64 0, i64 0, i32 0, null, metadata !688, i32 0, i32 0} ; [ DW_TAG_subroutine_type ]
!688 = metadata !{null, metadata !673, metadata !477}
!689 = metadata !{i32 786478, i32 0, metadata !656, metadata !"ap_int_base", metadata !"ap_int_base", metadata !"", metadata !425, i32 1563, metadata !690, i1 false, i1 false, i32 0, i32 0, null, i32 384, i1 false, null, null, i32 0, metadata !295, i32 1563} ; [ DW_TAG_subprogram ]
!690 = metadata !{i32 786453, i32 0, metadata !"", i32 0, i32 0, i64 0, i64 0, i64 0, i32 0, null, metadata !691, i32 0, i32 0} ; [ DW_TAG_subroutine_type ]
!691 = metadata !{null, metadata !673, metadata !439}
!692 = metadata !{i32 786478, i32 0, metadata !656, metadata !"ap_int_base", metadata !"ap_int_base", metadata !"", metadata !425, i32 1564, metadata !693, i1 false, i1 false, i32 0, i32 0, null, i32 384, i1 false, null, null, i32 0, metadata !295, i32 1564} ; [ DW_TAG_subprogram ]
!693 = metadata !{i32 786453, i32 0, metadata !"", i32 0, i32 0, i64 0, i64 0, i64 0, i32 0, null, metadata !694, i32 0, i32 0} ; [ DW_TAG_subroutine_type ]
!694 = metadata !{null, metadata !673, metadata !484}
!695 = metadata !{i32 786478, i32 0, metadata !656, metadata !"ap_int_base", metadata !"ap_int_base", metadata !"", metadata !425, i32 1565, metadata !696, i1 false, i1 false, i32 0, i32 0, null, i32 384, i1 false, null, null, i32 0, metadata !295, i32 1565} ; [ DW_TAG_subprogram ]
!696 = metadata !{i32 786453, i32 0, metadata !"", i32 0, i32 0, i64 0, i64 0, i64 0, i32 0, null, metadata !697, i32 0, i32 0} ; [ DW_TAG_subroutine_type ]
!697 = metadata !{null, metadata !673, metadata !488}
!698 = metadata !{i32 786478, i32 0, metadata !656, metadata !"ap_int_base", metadata !"ap_int_base", metadata !"", metadata !425, i32 1566, metadata !699, i1 false, i1 false, i32 0, i32 0, null, i32 384, i1 false, null, null, i32 0, metadata !295, i32 1566} ; [ DW_TAG_subprogram ]
!699 = metadata !{i32 786453, i32 0, metadata !"", i32 0, i32 0, i64 0, i64 0, i64 0, i32 0, null, metadata !700, i32 0, i32 0} ; [ DW_TAG_subroutine_type ]
!700 = metadata !{null, metadata !673, metadata !492}
!701 = metadata !{i32 786478, i32 0, metadata !656, metadata !"ap_int_base", metadata !"ap_int_base", metadata !"", metadata !425, i32 1567, metadata !702, i1 false, i1 false, i32 0, i32 0, null, i32 384, i1 false, null, null, i32 0, metadata !295, i32 1567} ; [ DW_TAG_subprogram ]
!702 = metadata !{i32 786453, i32 0, metadata !"", i32 0, i32 0, i64 0, i64 0, i64 0, i32 0, null, metadata !703, i32 0, i32 0} ; [ DW_TAG_subroutine_type ]
!703 = metadata !{null, metadata !673, metadata !496}
!704 = metadata !{i32 786478, i32 0, metadata !656, metadata !"ap_int_base", metadata !"ap_int_base", metadata !"", metadata !425, i32 1568, metadata !705, i1 false, i1 false, i32 0, i32 0, null, i32 384, i1 false, null, null, i32 0, metadata !295, i32 1568} ; [ DW_TAG_subprogram ]
!705 = metadata !{i32 786453, i32 0, metadata !"", i32 0, i32 0, i64 0, i64 0, i64 0, i32 0, null, metadata !706, i32 0, i32 0} ; [ DW_TAG_subroutine_type ]
!706 = metadata !{null, metadata !673, metadata !501}
!707 = metadata !{i32 786478, i32 0, metadata !656, metadata !"ap_int_base", metadata !"ap_int_base", metadata !"", metadata !425, i32 1569, metadata !708, i1 false, i1 false, i32 0, i32 0, null, i32 384, i1 false, null, null, i32 0, metadata !295, i32 1569} ; [ DW_TAG_subprogram ]
!708 = metadata !{i32 786453, i32 0, metadata !"", i32 0, i32 0, i64 0, i64 0, i64 0, i32 0, null, metadata !709, i32 0, i32 0} ; [ DW_TAG_subroutine_type ]
!709 = metadata !{null, metadata !673, metadata !506}
!710 = metadata !{i32 786478, i32 0, metadata !656, metadata !"ap_int_base", metadata !"ap_int_base", metadata !"", metadata !425, i32 1570, metadata !711, i1 false, i1 false, i32 0, i32 0, null, i32 384, i1 false, null, null, i32 0, metadata !295, i32 1570} ; [ DW_TAG_subprogram ]
!711 = metadata !{i32 786453, i32 0, metadata !"", i32 0, i32 0, i64 0, i64 0, i64 0, i32 0, null, metadata !712, i32 0, i32 0} ; [ DW_TAG_subroutine_type ]
!712 = metadata !{null, metadata !673, metadata !511}
!713 = metadata !{i32 786478, i32 0, metadata !656, metadata !"ap_int_base", metadata !"ap_int_base", metadata !"", metadata !425, i32 1571, metadata !714, i1 false, i1 false, i32 0, i32 0, null, i32 384, i1 false, null, null, i32 0, metadata !295, i32 1571} ; [ DW_TAG_subprogram ]
!714 = metadata !{i32 786453, i32 0, metadata !"", i32 0, i32 0, i64 0, i64 0, i64 0, i32 0, null, metadata !715, i32 0, i32 0} ; [ DW_TAG_subroutine_type ]
!715 = metadata !{null, metadata !673, metadata !515}
!716 = metadata !{i32 786478, i32 0, metadata !656, metadata !"ap_int_base", metadata !"ap_int_base", metadata !"", metadata !425, i32 1598, metadata !717, i1 false, i1 false, i32 0, i32 0, null, i32 256, i1 false, null, null, i32 0, metadata !295, i32 1598} ; [ DW_TAG_subprogram ]
!717 = metadata !{i32 786453, i32 0, metadata !"", i32 0, i32 0, i64 0, i64 0, i64 0, i32 0, null, metadata !718, i32 0, i32 0} ; [ DW_TAG_subroutine_type ]
!718 = metadata !{null, metadata !673, metadata !338}
!719 = metadata !{i32 786478, i32 0, metadata !656, metadata !"ap_int_base", metadata !"ap_int_base", metadata !"", metadata !425, i32 1605, metadata !720, i1 false, i1 false, i32 0, i32 0, null, i32 256, i1 false, null, null, i32 0, metadata !295, i32 1605} ; [ DW_TAG_subprogram ]
!720 = metadata !{i32 786453, i32 0, metadata !"", i32 0, i32 0, i64 0, i64 0, i64 0, i32 0, null, metadata !721, i32 0, i32 0} ; [ DW_TAG_subroutine_type ]
!721 = metadata !{null, metadata !673, metadata !338, metadata !465}
!722 = metadata !{i32 786478, i32 0, metadata !656, metadata !"read", metadata !"read", metadata !"_ZNV11ap_int_baseILi11ELb1ELb1EE4readEv", metadata !425, i32 1632, metadata !723, i1 false, i1 false, i32 0, i32 0, null, i32 256, i1 false, null, null, i32 0, metadata !295, i32 1632} ; [ DW_TAG_subprogram ]
!723 = metadata !{i32 786453, i32 0, metadata !"", i32 0, i32 0, i64 0, i64 0, i64 0, i32 0, null, metadata !724, i32 0, i32 0} ; [ DW_TAG_subroutine_type ]
!724 = metadata !{metadata !656, metadata !725}
!725 = metadata !{i32 786447, i32 0, metadata !"", i32 0, i32 0, i64 64, i64 64, i64 0, i32 64, metadata !726} ; [ DW_TAG_pointer_type ]
!726 = metadata !{i32 786485, null, metadata !"", null, i32 0, i64 0, i64 0, i64 0, i32 0, metadata !656} ; [ DW_TAG_volatile_type ]
!727 = metadata !{i32 786478, i32 0, metadata !656, metadata !"write", metadata !"write", metadata !"_ZNV11ap_int_baseILi11ELb1ELb1EE5writeERKS0_", metadata !425, i32 1638, metadata !728, i1 false, i1 false, i32 0, i32 0, null, i32 256, i1 false, null, null, i32 0, metadata !295, i32 1638} ; [ DW_TAG_subprogram ]
!728 = metadata !{i32 786453, i32 0, metadata !"", i32 0, i32 0, i64 0, i64 0, i64 0, i32 0, null, metadata !729, i32 0, i32 0} ; [ DW_TAG_subroutine_type ]
!729 = metadata !{null, metadata !725, metadata !730}
!730 = metadata !{i32 786448, null, null, null, i32 0, i64 0, i64 0, i64 0, i32 0, metadata !731} ; [ DW_TAG_reference_type ]
!731 = metadata !{i32 786470, null, metadata !"", null, i32 0, i64 0, i64 0, i64 0, i32 0, metadata !656} ; [ DW_TAG_const_type ]
!732 = metadata !{i32 786478, i32 0, metadata !656, metadata !"operator=", metadata !"operator=", metadata !"_ZNV11ap_int_baseILi11ELb1ELb1EEaSERVKS0_", metadata !425, i32 1650, metadata !733, i1 false, i1 false, i32 0, i32 0, null, i32 256, i1 false, null, null, i32 0, metadata !295, i32 1650} ; [ DW_TAG_subprogram ]
!733 = metadata !{i32 786453, i32 0, metadata !"", i32 0, i32 0, i64 0, i64 0, i64 0, i32 0, null, metadata !734, i32 0, i32 0} ; [ DW_TAG_subroutine_type ]
!734 = metadata !{null, metadata !725, metadata !735}
!735 = metadata !{i32 786448, null, null, null, i32 0, i64 0, i64 0, i64 0, i32 0, metadata !736} ; [ DW_TAG_reference_type ]
!736 = metadata !{i32 786470, null, metadata !"", null, i32 0, i64 0, i64 0, i64 0, i32 0, metadata !726} ; [ DW_TAG_const_type ]
!737 = metadata !{i32 786478, i32 0, metadata !656, metadata !"operator=", metadata !"operator=", metadata !"_ZNV11ap_int_baseILi11ELb1ELb1EEaSERKS0_", metadata !425, i32 1659, metadata !728, i1 false, i1 false, i32 0, i32 0, null, i32 256, i1 false, null, null, i32 0, metadata !295, i32 1659} ; [ DW_TAG_subprogram ]
!738 = metadata !{i32 786478, i32 0, metadata !656, metadata !"operator=", metadata !"operator=", metadata !"_ZN11ap_int_baseILi11ELb1ELb1EEaSERVKS0_", metadata !425, i32 1682, metadata !739, i1 false, i1 false, i32 0, i32 0, null, i32 256, i1 false, null, null, i32 0, metadata !295, i32 1682} ; [ DW_TAG_subprogram ]
!739 = metadata !{i32 786453, i32 0, metadata !"", i32 0, i32 0, i64 0, i64 0, i64 0, i32 0, null, metadata !740, i32 0, i32 0} ; [ DW_TAG_subroutine_type ]
!740 = metadata !{metadata !741, metadata !673, metadata !735}
!741 = metadata !{i32 786448, null, null, null, i32 0, i64 0, i64 0, i64 0, i32 0, metadata !656} ; [ DW_TAG_reference_type ]
!742 = metadata !{i32 786478, i32 0, metadata !656, metadata !"operator=", metadata !"operator=", metadata !"_ZN11ap_int_baseILi11ELb1ELb1EEaSERKS0_", metadata !425, i32 1687, metadata !743, i1 false, i1 false, i32 0, i32 0, null, i32 256, i1 false, null, null, i32 0, metadata !295, i32 1687} ; [ DW_TAG_subprogram ]
!743 = metadata !{i32 786453, i32 0, metadata !"", i32 0, i32 0, i64 0, i64 0, i64 0, i32 0, null, metadata !744, i32 0, i32 0} ; [ DW_TAG_subroutine_type ]
!744 = metadata !{metadata !741, metadata !673, metadata !730}
!745 = metadata !{i32 786478, i32 0, metadata !656, metadata !"operator=", metadata !"operator=", metadata !"_ZN11ap_int_baseILi11ELb1ELb1EEaSEPKc", metadata !425, i32 1691, metadata !746, i1 false, i1 false, i32 0, i32 0, null, i32 256, i1 false, null, null, i32 0, metadata !295, i32 1691} ; [ DW_TAG_subprogram ]
!746 = metadata !{i32 786453, i32 0, metadata !"", i32 0, i32 0, i64 0, i64 0, i64 0, i32 0, null, metadata !747, i32 0, i32 0} ; [ DW_TAG_subroutine_type ]
!747 = metadata !{metadata !741, metadata !673, metadata !338}
!748 = metadata !{i32 786478, i32 0, metadata !656, metadata !"set", metadata !"set", metadata !"_ZN11ap_int_baseILi11ELb1ELb1EE3setEPKca", metadata !425, i32 1699, metadata !749, i1 false, i1 false, i32 0, i32 0, null, i32 256, i1 false, null, null, i32 0, metadata !295, i32 1699} ; [ DW_TAG_subprogram ]
!749 = metadata !{i32 786453, i32 0, metadata !"", i32 0, i32 0, i64 0, i64 0, i64 0, i32 0, null, metadata !750, i32 0, i32 0} ; [ DW_TAG_subroutine_type ]
!750 = metadata !{metadata !741, metadata !673, metadata !338, metadata !465}
!751 = metadata !{i32 786478, i32 0, metadata !656, metadata !"operator=", metadata !"operator=", metadata !"_ZN11ap_int_baseILi11ELb1ELb1EEaSEa", metadata !425, i32 1713, metadata !752, i1 false, i1 false, i32 0, i32 0, null, i32 256, i1 false, null, null, i32 0, metadata !295, i32 1713} ; [ DW_TAG_subprogram ]
!752 = metadata !{i32 786453, i32 0, metadata !"", i32 0, i32 0, i64 0, i64 0, i64 0, i32 0, null, metadata !753, i32 0, i32 0} ; [ DW_TAG_subroutine_type ]
!753 = metadata !{metadata !741, metadata !673, metadata !465}
!754 = metadata !{i32 786478, i32 0, metadata !656, metadata !"operator=", metadata !"operator=", metadata !"_ZN11ap_int_baseILi11ELb1ELb1EEaSEh", metadata !425, i32 1714, metadata !755, i1 false, i1 false, i32 0, i32 0, null, i32 256, i1 false, null, null, i32 0, metadata !295, i32 1714} ; [ DW_TAG_subprogram ]
!755 = metadata !{i32 786453, i32 0, metadata !"", i32 0, i32 0, i64 0, i64 0, i64 0, i32 0, null, metadata !756, i32 0, i32 0} ; [ DW_TAG_subroutine_type ]
!756 = metadata !{metadata !741, metadata !673, metadata !469}
!757 = metadata !{i32 786478, i32 0, metadata !656, metadata !"operator=", metadata !"operator=", metadata !"_ZN11ap_int_baseILi11ELb1ELb1EEaSEs", metadata !425, i32 1715, metadata !758, i1 false, i1 false, i32 0, i32 0, null, i32 256, i1 false, null, null, i32 0, metadata !295, i32 1715} ; [ DW_TAG_subprogram ]
!758 = metadata !{i32 786453, i32 0, metadata !"", i32 0, i32 0, i64 0, i64 0, i64 0, i32 0, null, metadata !759, i32 0, i32 0} ; [ DW_TAG_subroutine_type ]
!759 = metadata !{metadata !741, metadata !673, metadata !473}
!760 = metadata !{i32 786478, i32 0, metadata !656, metadata !"operator=", metadata !"operator=", metadata !"_ZN11ap_int_baseILi11ELb1ELb1EEaSEt", metadata !425, i32 1716, metadata !761, i1 false, i1 false, i32 0, i32 0, null, i32 256, i1 false, null, null, i32 0, metadata !295, i32 1716} ; [ DW_TAG_subprogram ]
!761 = metadata !{i32 786453, i32 0, metadata !"", i32 0, i32 0, i64 0, i64 0, i64 0, i32 0, null, metadata !762, i32 0, i32 0} ; [ DW_TAG_subroutine_type ]
!762 = metadata !{metadata !741, metadata !673, metadata !477}
!763 = metadata !{i32 786478, i32 0, metadata !656, metadata !"operator=", metadata !"operator=", metadata !"_ZN11ap_int_baseILi11ELb1ELb1EEaSEi", metadata !425, i32 1717, metadata !764, i1 false, i1 false, i32 0, i32 0, null, i32 256, i1 false, null, null, i32 0, metadata !295, i32 1717} ; [ DW_TAG_subprogram ]
!764 = metadata !{i32 786453, i32 0, metadata !"", i32 0, i32 0, i64 0, i64 0, i64 0, i32 0, null, metadata !765, i32 0, i32 0} ; [ DW_TAG_subroutine_type ]
!765 = metadata !{metadata !741, metadata !673, metadata !439}
!766 = metadata !{i32 786478, i32 0, metadata !656, metadata !"operator=", metadata !"operator=", metadata !"_ZN11ap_int_baseILi11ELb1ELb1EEaSEj", metadata !425, i32 1718, metadata !767, i1 false, i1 false, i32 0, i32 0, null, i32 256, i1 false, null, null, i32 0, metadata !295, i32 1718} ; [ DW_TAG_subprogram ]
!767 = metadata !{i32 786453, i32 0, metadata !"", i32 0, i32 0, i64 0, i64 0, i64 0, i32 0, null, metadata !768, i32 0, i32 0} ; [ DW_TAG_subroutine_type ]
!768 = metadata !{metadata !741, metadata !673, metadata !484}
!769 = metadata !{i32 786478, i32 0, metadata !656, metadata !"operator=", metadata !"operator=", metadata !"_ZN11ap_int_baseILi11ELb1ELb1EEaSEx", metadata !425, i32 1719, metadata !770, i1 false, i1 false, i32 0, i32 0, null, i32 256, i1 false, null, null, i32 0, metadata !295, i32 1719} ; [ DW_TAG_subprogram ]
!770 = metadata !{i32 786453, i32 0, metadata !"", i32 0, i32 0, i64 0, i64 0, i64 0, i32 0, null, metadata !771, i32 0, i32 0} ; [ DW_TAG_subroutine_type ]
!771 = metadata !{metadata !741, metadata !673, metadata !496}
!772 = metadata !{i32 786478, i32 0, metadata !656, metadata !"operator=", metadata !"operator=", metadata !"_ZN11ap_int_baseILi11ELb1ELb1EEaSEy", metadata !425, i32 1720, metadata !773, i1 false, i1 false, i32 0, i32 0, null, i32 256, i1 false, null, null, i32 0, metadata !295, i32 1720} ; [ DW_TAG_subprogram ]
!773 = metadata !{i32 786453, i32 0, metadata !"", i32 0, i32 0, i64 0, i64 0, i64 0, i32 0, null, metadata !774, i32 0, i32 0} ; [ DW_TAG_subroutine_type ]
!774 = metadata !{metadata !741, metadata !673, metadata !501}
!775 = metadata !{i32 786478, i32 0, metadata !656, metadata !"operator short", metadata !"operator short", metadata !"_ZNK11ap_int_baseILi11ELb1ELb1EEcvsEv", metadata !425, i32 1758, metadata !776, i1 false, i1 false, i32 0, i32 0, null, i32 256, i1 false, null, null, i32 0, metadata !295, i32 1758} ; [ DW_TAG_subprogram ]
!776 = metadata !{i32 786453, i32 0, metadata !"", i32 0, i32 0, i64 0, i64 0, i64 0, i32 0, null, metadata !777, i32 0, i32 0} ; [ DW_TAG_subroutine_type ]
!777 = metadata !{metadata !778, metadata !782}
!778 = metadata !{i32 786454, metadata !656, metadata !"RetType", metadata !425, i32 1500, i64 0, i64 0, i64 0, i32 0, metadata !779} ; [ DW_TAG_typedef ]
!779 = metadata !{i32 786454, metadata !780, metadata !"Type", metadata !425, i32 1471, i64 0, i64 0, i64 0, i32 0, metadata !473} ; [ DW_TAG_typedef ]
!780 = metadata !{i32 786434, null, metadata !"retval<2, true>", metadata !425, i32 1470, i64 8, i64 8, i32 0, i32 0, null, metadata !351, i32 0, null, metadata !781} ; [ DW_TAG_class_type ]
!781 = metadata !{metadata !577, metadata !669}
!782 = metadata !{i32 786447, i32 0, metadata !"", i32 0, i32 0, i64 64, i64 64, i64 0, i32 64, metadata !731} ; [ DW_TAG_pointer_type ]
!783 = metadata !{i32 786478, i32 0, metadata !656, metadata !"to_bool", metadata !"to_bool", metadata !"_ZNK11ap_int_baseILi11ELb1ELb1EE7to_boolEv", metadata !425, i32 1764, metadata !784, i1 false, i1 false, i32 0, i32 0, null, i32 256, i1 false, null, null, i32 0, metadata !295, i32 1764} ; [ DW_TAG_subprogram ]
!784 = metadata !{i32 786453, i32 0, metadata !"", i32 0, i32 0, i64 0, i64 0, i64 0, i32 0, null, metadata !785, i32 0, i32 0} ; [ DW_TAG_subroutine_type ]
!785 = metadata !{metadata !309, metadata !782}
!786 = metadata !{i32 786478, i32 0, metadata !656, metadata !"to_uchar", metadata !"to_uchar", metadata !"_ZNK11ap_int_baseILi11ELb1ELb1EE8to_ucharEv", metadata !425, i32 1765, metadata !787, i1 false, i1 false, i32 0, i32 0, null, i32 256, i1 false, null, null, i32 0, metadata !295, i32 1765} ; [ DW_TAG_subprogram ]
!787 = metadata !{i32 786453, i32 0, metadata !"", i32 0, i32 0, i64 0, i64 0, i64 0, i32 0, null, metadata !788, i32 0, i32 0} ; [ DW_TAG_subroutine_type ]
!788 = metadata !{metadata !469, metadata !782}
!789 = metadata !{i32 786478, i32 0, metadata !656, metadata !"to_char", metadata !"to_char", metadata !"_ZNK11ap_int_baseILi11ELb1ELb1EE7to_charEv", metadata !425, i32 1766, metadata !790, i1 false, i1 false, i32 0, i32 0, null, i32 256, i1 false, null, null, i32 0, metadata !295, i32 1766} ; [ DW_TAG_subprogram ]
!790 = metadata !{i32 786453, i32 0, metadata !"", i32 0, i32 0, i64 0, i64 0, i64 0, i32 0, null, metadata !791, i32 0, i32 0} ; [ DW_TAG_subroutine_type ]
!791 = metadata !{metadata !465, metadata !782}
!792 = metadata !{i32 786478, i32 0, metadata !656, metadata !"to_ushort", metadata !"to_ushort", metadata !"_ZNK11ap_int_baseILi11ELb1ELb1EE9to_ushortEv", metadata !425, i32 1767, metadata !793, i1 false, i1 false, i32 0, i32 0, null, i32 256, i1 false, null, null, i32 0, metadata !295, i32 1767} ; [ DW_TAG_subprogram ]
!793 = metadata !{i32 786453, i32 0, metadata !"", i32 0, i32 0, i64 0, i64 0, i64 0, i32 0, null, metadata !794, i32 0, i32 0} ; [ DW_TAG_subroutine_type ]
!794 = metadata !{metadata !477, metadata !782}
!795 = metadata !{i32 786478, i32 0, metadata !656, metadata !"to_short", metadata !"to_short", metadata !"_ZNK11ap_int_baseILi11ELb1ELb1EE8to_shortEv", metadata !425, i32 1768, metadata !796, i1 false, i1 false, i32 0, i32 0, null, i32 256, i1 false, null, null, i32 0, metadata !295, i32 1768} ; [ DW_TAG_subprogram ]
!796 = metadata !{i32 786453, i32 0, metadata !"", i32 0, i32 0, i64 0, i64 0, i64 0, i32 0, null, metadata !797, i32 0, i32 0} ; [ DW_TAG_subroutine_type ]
!797 = metadata !{metadata !473, metadata !782}
!798 = metadata !{i32 786478, i32 0, metadata !656, metadata !"to_int", metadata !"to_int", metadata !"_ZNK11ap_int_baseILi11ELb1ELb1EE6to_intEv", metadata !425, i32 1769, metadata !799, i1 false, i1 false, i32 0, i32 0, null, i32 256, i1 false, null, null, i32 0, metadata !295, i32 1769} ; [ DW_TAG_subprogram ]
!799 = metadata !{i32 786453, i32 0, metadata !"", i32 0, i32 0, i64 0, i64 0, i64 0, i32 0, null, metadata !800, i32 0, i32 0} ; [ DW_TAG_subroutine_type ]
!800 = metadata !{metadata !439, metadata !782}
!801 = metadata !{i32 786478, i32 0, metadata !656, metadata !"to_uint", metadata !"to_uint", metadata !"_ZNK11ap_int_baseILi11ELb1ELb1EE7to_uintEv", metadata !425, i32 1770, metadata !802, i1 false, i1 false, i32 0, i32 0, null, i32 256, i1 false, null, null, i32 0, metadata !295, i32 1770} ; [ DW_TAG_subprogram ]
!802 = metadata !{i32 786453, i32 0, metadata !"", i32 0, i32 0, i64 0, i64 0, i64 0, i32 0, null, metadata !803, i32 0, i32 0} ; [ DW_TAG_subroutine_type ]
!803 = metadata !{metadata !484, metadata !782}
!804 = metadata !{i32 786478, i32 0, metadata !656, metadata !"to_long", metadata !"to_long", metadata !"_ZNK11ap_int_baseILi11ELb1ELb1EE7to_longEv", metadata !425, i32 1771, metadata !805, i1 false, i1 false, i32 0, i32 0, null, i32 256, i1 false, null, null, i32 0, metadata !295, i32 1771} ; [ DW_TAG_subprogram ]
!805 = metadata !{i32 786453, i32 0, metadata !"", i32 0, i32 0, i64 0, i64 0, i64 0, i32 0, null, metadata !806, i32 0, i32 0} ; [ DW_TAG_subroutine_type ]
!806 = metadata !{metadata !488, metadata !782}
!807 = metadata !{i32 786478, i32 0, metadata !656, metadata !"to_ulong", metadata !"to_ulong", metadata !"_ZNK11ap_int_baseILi11ELb1ELb1EE8to_ulongEv", metadata !425, i32 1772, metadata !808, i1 false, i1 false, i32 0, i32 0, null, i32 256, i1 false, null, null, i32 0, metadata !295, i32 1772} ; [ DW_TAG_subprogram ]
!808 = metadata !{i32 786453, i32 0, metadata !"", i32 0, i32 0, i64 0, i64 0, i64 0, i32 0, null, metadata !809, i32 0, i32 0} ; [ DW_TAG_subroutine_type ]
!809 = metadata !{metadata !492, metadata !782}
!810 = metadata !{i32 786478, i32 0, metadata !656, metadata !"to_int64", metadata !"to_int64", metadata !"_ZNK11ap_int_baseILi11ELb1ELb1EE8to_int64Ev", metadata !425, i32 1773, metadata !811, i1 false, i1 false, i32 0, i32 0, null, i32 256, i1 false, null, null, i32 0, metadata !295, i32 1773} ; [ DW_TAG_subprogram ]
!811 = metadata !{i32 786453, i32 0, metadata !"", i32 0, i32 0, i64 0, i64 0, i64 0, i32 0, null, metadata !812, i32 0, i32 0} ; [ DW_TAG_subroutine_type ]
!812 = metadata !{metadata !496, metadata !782}
!813 = metadata !{i32 786478, i32 0, metadata !656, metadata !"to_uint64", metadata !"to_uint64", metadata !"_ZNK11ap_int_baseILi11ELb1ELb1EE9to_uint64Ev", metadata !425, i32 1774, metadata !814, i1 false, i1 false, i32 0, i32 0, null, i32 256, i1 false, null, null, i32 0, metadata !295, i32 1774} ; [ DW_TAG_subprogram ]
!814 = metadata !{i32 786453, i32 0, metadata !"", i32 0, i32 0, i64 0, i64 0, i64 0, i32 0, null, metadata !815, i32 0, i32 0} ; [ DW_TAG_subroutine_type ]
!815 = metadata !{metadata !501, metadata !782}
!816 = metadata !{i32 786478, i32 0, metadata !656, metadata !"to_double", metadata !"to_double", metadata !"_ZNK11ap_int_baseILi11ELb1ELb1EE9to_doubleEv", metadata !425, i32 1775, metadata !817, i1 false, i1 false, i32 0, i32 0, null, i32 256, i1 false, null, null, i32 0, metadata !295, i32 1775} ; [ DW_TAG_subprogram ]
!817 = metadata !{i32 786453, i32 0, metadata !"", i32 0, i32 0, i64 0, i64 0, i64 0, i32 0, null, metadata !818, i32 0, i32 0} ; [ DW_TAG_subroutine_type ]
!818 = metadata !{metadata !515, metadata !782}
!819 = metadata !{i32 786478, i32 0, metadata !656, metadata !"length", metadata !"length", metadata !"_ZNK11ap_int_baseILi11ELb1ELb1EE6lengthEv", metadata !425, i32 1789, metadata !799, i1 false, i1 false, i32 0, i32 0, null, i32 256, i1 false, null, null, i32 0, metadata !295, i32 1789} ; [ DW_TAG_subprogram ]
!820 = metadata !{i32 786478, i32 0, metadata !656, metadata !"length", metadata !"length", metadata !"_ZNVK11ap_int_baseILi11ELb1ELb1EE6lengthEv", metadata !425, i32 1790, metadata !821, i1 false, i1 false, i32 0, i32 0, null, i32 256, i1 false, null, null, i32 0, metadata !295, i32 1790} ; [ DW_TAG_subprogram ]
!821 = metadata !{i32 786453, i32 0, metadata !"", i32 0, i32 0, i64 0, i64 0, i64 0, i32 0, null, metadata !822, i32 0, i32 0} ; [ DW_TAG_subroutine_type ]
!822 = metadata !{metadata !439, metadata !823}
!823 = metadata !{i32 786447, i32 0, metadata !"", i32 0, i32 0, i64 64, i64 64, i64 0, i32 64, metadata !736} ; [ DW_TAG_pointer_type ]
!824 = metadata !{i32 786478, i32 0, metadata !656, metadata !"reverse", metadata !"reverse", metadata !"_ZN11ap_int_baseILi11ELb1ELb1EE7reverseEv", metadata !425, i32 1795, metadata !825, i1 false, i1 false, i32 0, i32 0, null, i32 256, i1 false, null, null, i32 0, metadata !295, i32 1795} ; [ DW_TAG_subprogram ]
!825 = metadata !{i32 786453, i32 0, metadata !"", i32 0, i32 0, i64 0, i64 0, i64 0, i32 0, null, metadata !826, i32 0, i32 0} ; [ DW_TAG_subroutine_type ]
!826 = metadata !{metadata !741, metadata !673}
!827 = metadata !{i32 786478, i32 0, metadata !656, metadata !"iszero", metadata !"iszero", metadata !"_ZNK11ap_int_baseILi11ELb1ELb1EE6iszeroEv", metadata !425, i32 1801, metadata !784, i1 false, i1 false, i32 0, i32 0, null, i32 256, i1 false, null, null, i32 0, metadata !295, i32 1801} ; [ DW_TAG_subprogram ]
!828 = metadata !{i32 786478, i32 0, metadata !656, metadata !"is_zero", metadata !"is_zero", metadata !"_ZNK11ap_int_baseILi11ELb1ELb1EE7is_zeroEv", metadata !425, i32 1806, metadata !784, i1 false, i1 false, i32 0, i32 0, null, i32 256, i1 false, null, null, i32 0, metadata !295, i32 1806} ; [ DW_TAG_subprogram ]
!829 = metadata !{i32 786478, i32 0, metadata !656, metadata !"sign", metadata !"sign", metadata !"_ZNK11ap_int_baseILi11ELb1ELb1EE4signEv", metadata !425, i32 1811, metadata !784, i1 false, i1 false, i32 0, i32 0, null, i32 256, i1 false, null, null, i32 0, metadata !295, i32 1811} ; [ DW_TAG_subprogram ]
!830 = metadata !{i32 786478, i32 0, metadata !656, metadata !"clear", metadata !"clear", metadata !"_ZN11ap_int_baseILi11ELb1ELb1EE5clearEi", metadata !425, i32 1819, metadata !690, i1 false, i1 false, i32 0, i32 0, null, i32 256, i1 false, null, null, i32 0, metadata !295, i32 1819} ; [ DW_TAG_subprogram ]
!831 = metadata !{i32 786478, i32 0, metadata !656, metadata !"invert", metadata !"invert", metadata !"_ZN11ap_int_baseILi11ELb1ELb1EE6invertEi", metadata !425, i32 1825, metadata !690, i1 false, i1 false, i32 0, i32 0, null, i32 256, i1 false, null, null, i32 0, metadata !295, i32 1825} ; [ DW_TAG_subprogram ]
!832 = metadata !{i32 786478, i32 0, metadata !656, metadata !"test", metadata !"test", metadata !"_ZNK11ap_int_baseILi11ELb1ELb1EE4testEi", metadata !425, i32 1833, metadata !833, i1 false, i1 false, i32 0, i32 0, null, i32 256, i1 false, null, null, i32 0, metadata !295, i32 1833} ; [ DW_TAG_subprogram ]
!833 = metadata !{i32 786453, i32 0, metadata !"", i32 0, i32 0, i64 0, i64 0, i64 0, i32 0, null, metadata !834, i32 0, i32 0} ; [ DW_TAG_subroutine_type ]
!834 = metadata !{metadata !309, metadata !782, metadata !439}
!835 = metadata !{i32 786478, i32 0, metadata !656, metadata !"set", metadata !"set", metadata !"_ZN11ap_int_baseILi11ELb1ELb1EE3setEi", metadata !425, i32 1839, metadata !690, i1 false, i1 false, i32 0, i32 0, null, i32 256, i1 false, null, null, i32 0, metadata !295, i32 1839} ; [ DW_TAG_subprogram ]
!836 = metadata !{i32 786478, i32 0, metadata !656, metadata !"set", metadata !"set", metadata !"_ZN11ap_int_baseILi11ELb1ELb1EE3setEib", metadata !425, i32 1845, metadata !837, i1 false, i1 false, i32 0, i32 0, null, i32 256, i1 false, null, null, i32 0, metadata !295, i32 1845} ; [ DW_TAG_subprogram ]
!837 = metadata !{i32 786453, i32 0, metadata !"", i32 0, i32 0, i64 0, i64 0, i64 0, i32 0, null, metadata !838, i32 0, i32 0} ; [ DW_TAG_subroutine_type ]
!838 = metadata !{null, metadata !673, metadata !439, metadata !309}
!839 = metadata !{i32 786478, i32 0, metadata !656, metadata !"lrotate", metadata !"lrotate", metadata !"_ZN11ap_int_baseILi11ELb1ELb1EE7lrotateEi", metadata !425, i32 1852, metadata !690, i1 false, i1 false, i32 0, i32 0, null, i32 256, i1 false, null, null, i32 0, metadata !295, i32 1852} ; [ DW_TAG_subprogram ]
!840 = metadata !{i32 786478, i32 0, metadata !656, metadata !"rrotate", metadata !"rrotate", metadata !"_ZN11ap_int_baseILi11ELb1ELb1EE7rrotateEi", metadata !425, i32 1861, metadata !690, i1 false, i1 false, i32 0, i32 0, null, i32 256, i1 false, null, null, i32 0, metadata !295, i32 1861} ; [ DW_TAG_subprogram ]
!841 = metadata !{i32 786478, i32 0, metadata !656, metadata !"set_bit", metadata !"set_bit", metadata !"_ZN11ap_int_baseILi11ELb1ELb1EE7set_bitEib", metadata !425, i32 1869, metadata !837, i1 false, i1 false, i32 0, i32 0, null, i32 256, i1 false, null, null, i32 0, metadata !295, i32 1869} ; [ DW_TAG_subprogram ]
!842 = metadata !{i32 786478, i32 0, metadata !656, metadata !"get_bit", metadata !"get_bit", metadata !"_ZNK11ap_int_baseILi11ELb1ELb1EE7get_bitEi", metadata !425, i32 1874, metadata !833, i1 false, i1 false, i32 0, i32 0, null, i32 256, i1 false, null, null, i32 0, metadata !295, i32 1874} ; [ DW_TAG_subprogram ]
!843 = metadata !{i32 786478, i32 0, metadata !656, metadata !"b_not", metadata !"b_not", metadata !"_ZN11ap_int_baseILi11ELb1ELb1EE5b_notEv", metadata !425, i32 1879, metadata !671, i1 false, i1 false, i32 0, i32 0, null, i32 256, i1 false, null, null, i32 0, metadata !295, i32 1879} ; [ DW_TAG_subprogram ]
!844 = metadata !{i32 786478, i32 0, metadata !656, metadata !"countLeadingZeros", metadata !"countLeadingZeros", metadata !"_ZN11ap_int_baseILi11ELb1ELb1EE17countLeadingZerosEv", metadata !425, i32 1886, metadata !845, i1 false, i1 false, i32 0, i32 0, null, i32 256, i1 false, null, null, i32 0, metadata !295, i32 1886} ; [ DW_TAG_subprogram ]
!845 = metadata !{i32 786453, i32 0, metadata !"", i32 0, i32 0, i64 0, i64 0, i64 0, i32 0, null, metadata !846, i32 0, i32 0} ; [ DW_TAG_subroutine_type ]
!846 = metadata !{metadata !439, metadata !673}
!847 = metadata !{i32 786478, i32 0, metadata !656, metadata !"operator++", metadata !"operator++", metadata !"_ZN11ap_int_baseILi11ELb1ELb1EEppEv", metadata !425, i32 1943, metadata !825, i1 false, i1 false, i32 0, i32 0, null, i32 256, i1 false, null, null, i32 0, metadata !295, i32 1943} ; [ DW_TAG_subprogram ]
!848 = metadata !{i32 786478, i32 0, metadata !656, metadata !"operator--", metadata !"operator--", metadata !"_ZN11ap_int_baseILi11ELb1ELb1EEmmEv", metadata !425, i32 1947, metadata !825, i1 false, i1 false, i32 0, i32 0, null, i32 256, i1 false, null, null, i32 0, metadata !295, i32 1947} ; [ DW_TAG_subprogram ]
!849 = metadata !{i32 786478, i32 0, metadata !656, metadata !"operator++", metadata !"operator++", metadata !"_ZN11ap_int_baseILi11ELb1ELb1EEppEi", metadata !425, i32 1955, metadata !850, i1 false, i1 false, i32 0, i32 0, null, i32 256, i1 false, null, null, i32 0, metadata !295, i32 1955} ; [ DW_TAG_subprogram ]
!850 = metadata !{i32 786453, i32 0, metadata !"", i32 0, i32 0, i64 0, i64 0, i64 0, i32 0, null, metadata !851, i32 0, i32 0} ; [ DW_TAG_subroutine_type ]
!851 = metadata !{metadata !731, metadata !673, metadata !439}
!852 = metadata !{i32 786478, i32 0, metadata !656, metadata !"operator--", metadata !"operator--", metadata !"_ZN11ap_int_baseILi11ELb1ELb1EEmmEi", metadata !425, i32 1960, metadata !850, i1 false, i1 false, i32 0, i32 0, null, i32 256, i1 false, null, null, i32 0, metadata !295, i32 1960} ; [ DW_TAG_subprogram ]
!853 = metadata !{i32 786478, i32 0, metadata !656, metadata !"operator+", metadata !"operator+", metadata !"_ZNK11ap_int_baseILi11ELb1ELb1EEpsEv", metadata !425, i32 1969, metadata !854, i1 false, i1 false, i32 0, i32 0, null, i32 256, i1 false, null, null, i32 0, metadata !295, i32 1969} ; [ DW_TAG_subprogram ]
!854 = metadata !{i32 786453, i32 0, metadata !"", i32 0, i32 0, i64 0, i64 0, i64 0, i32 0, null, metadata !855, i32 0, i32 0} ; [ DW_TAG_subroutine_type ]
!855 = metadata !{metadata !656, metadata !782}
!856 = metadata !{i32 786478, i32 0, metadata !656, metadata !"operator!", metadata !"operator!", metadata !"_ZNK11ap_int_baseILi11ELb1ELb1EEntEv", metadata !425, i32 1975, metadata !784, i1 false, i1 false, i32 0, i32 0, null, i32 256, i1 false, null, null, i32 0, metadata !295, i32 1975} ; [ DW_TAG_subprogram ]
!857 = metadata !{i32 786478, i32 0, metadata !656, metadata !"operator-", metadata !"operator-", metadata !"_ZNK11ap_int_baseILi11ELb1ELb1EEngEv", metadata !425, i32 1980, metadata !858, i1 false, i1 false, i32 0, i32 0, null, i32 256, i1 false, null, null, i32 0, metadata !295, i32 1980} ; [ DW_TAG_subprogram ]
!858 = metadata !{i32 786453, i32 0, metadata !"", i32 0, i32 0, i64 0, i64 0, i64 0, i32 0, null, metadata !859, i32 0, i32 0} ; [ DW_TAG_subroutine_type ]
!859 = metadata !{metadata !860, metadata !782}
!860 = metadata !{i32 786434, null, metadata !"ap_int_base<12, true, true>", metadata !425, i32 1495, i64 16, i64 16, i32 0, i32 0, null, metadata !861, i32 0, null, metadata !1422} ; [ DW_TAG_class_type ]
!861 = metadata !{metadata !862, metadata !873, metadata !877, metadata !1180, metadata !1183, metadata !1186, metadata !1189, metadata !1192, metadata !1195, metadata !1198, metadata !1201, metadata !1204, metadata !1207, metadata !1210, metadata !1213, metadata !1216, metadata !1219, metadata !1222, metadata !1225, metadata !1228, metadata !1231, metadata !1236, metadata !1241, metadata !1244, metadata !1249, metadata !1252, metadata !1253, metadata !1257, metadata !1260, metadata !1263, metadata !1266, metadata !1269, metadata !1272, metadata !1275, metadata !1278, metadata !1281, metadata !1284, metadata !1287, metadata !1290, metadata !1293, metadata !1296, metadata !1301, metadata !1304, metadata !1307, metadata !1310, metadata !1313, metadata !1316, metadata !1319, metadata !1322, metadata !1325, metadata !1328, metadata !1331, metadata !1334, metadata !1337, metadata !1338, metadata !1342, metadata !1345, metadata !1346, metadata !1347, metadata !1348, metadata !1349, metadata !1350, metadata !1353, metadata !1354, metadata !1357, metadata !1358, metadata !1359, metadata !1360, metadata !1361, metadata !1362, metadata !1365, metadata !1366, metadata !1367, metadata !1370, metadata !1371, metadata !1374, metadata !1375, metadata !1381, metadata !1387, metadata !1388, metadata !1391, metadata !1392, metadata !1396, metadata !1397, metadata !1398, metadata !1399, metadata !1402, metadata !1403, metadata !1404, metadata !1405, metadata !1406, metadata !1407, metadata !1408, metadata !1409, metadata !1410, metadata !1411, metadata !1412, metadata !1413, metadata !1416, metadata !1419}
!862 = metadata !{i32 786460, metadata !860, null, metadata !425, i32 0, i64 0, i64 0, i64 0, i32 0, metadata !863} ; [ DW_TAG_inheritance ]
!863 = metadata !{i32 786434, null, metadata !"ssdm_int<12 + 1024 * 0, true>", metadata !429, i32 25, i64 16, i64 16, i32 0, i32 0, null, metadata !864, i32 0, null, metadata !871} ; [ DW_TAG_class_type ]
!864 = metadata !{metadata !865, metadata !867}
!865 = metadata !{i32 786445, metadata !863, metadata !"V", metadata !429, i32 25, i64 12, i64 16, i64 0, i32 0, metadata !866} ; [ DW_TAG_member ]
!866 = metadata !{i32 786468, null, metadata !"int12", null, i32 0, i64 12, i64 16, i64 0, i32 0, i32 5} ; [ DW_TAG_base_type ]
!867 = metadata !{i32 786478, i32 0, metadata !863, metadata !"ssdm_int", metadata !"ssdm_int", metadata !"", metadata !429, i32 25, metadata !868, i1 false, i1 false, i32 0, i32 0, null, i32 256, i1 false, null, null, i32 0, metadata !295, i32 25} ; [ DW_TAG_subprogram ]
!868 = metadata !{i32 786453, i32 0, metadata !"", i32 0, i32 0, i64 0, i64 0, i64 0, i32 0, null, metadata !869, i32 0, i32 0} ; [ DW_TAG_subroutine_type ]
!869 = metadata !{null, metadata !870}
!870 = metadata !{i32 786447, i32 0, metadata !"", i32 0, i32 0, i64 64, i64 64, i64 0, i32 64, metadata !863} ; [ DW_TAG_pointer_type ]
!871 = metadata !{metadata !872, metadata !669}
!872 = metadata !{i32 786480, null, metadata !"_AP_N", metadata !439, i64 12, null, i32 0, i32 0} ; [ DW_TAG_template_value_parameter ]
!873 = metadata !{i32 786478, i32 0, metadata !860, metadata !"ap_int_base", metadata !"ap_int_base", metadata !"", metadata !425, i32 1536, metadata !874, i1 false, i1 false, i32 0, i32 0, null, i32 256, i1 false, null, null, i32 0, metadata !295, i32 1536} ; [ DW_TAG_subprogram ]
!874 = metadata !{i32 786453, i32 0, metadata !"", i32 0, i32 0, i64 0, i64 0, i64 0, i32 0, null, metadata !875, i32 0, i32 0} ; [ DW_TAG_subroutine_type ]
!875 = metadata !{null, metadata !876}
!876 = metadata !{i32 786447, i32 0, metadata !"", i32 0, i32 0, i64 64, i64 64, i64 0, i32 64, metadata !860} ; [ DW_TAG_pointer_type ]
!877 = metadata !{i32 786478, i32 0, metadata !860, metadata !"ap_int_base<33, true>", metadata !"ap_int_base<33, true>", metadata !"", metadata !425, i32 1548, metadata !878, i1 false, i1 false, i32 0, i32 0, null, i32 256, i1 false, null, metadata !902, i32 0, metadata !295, i32 1548} ; [ DW_TAG_subprogram ]
!878 = metadata !{i32 786453, i32 0, metadata !"", i32 0, i32 0, i64 0, i64 0, i64 0, i32 0, null, metadata !879, i32 0, i32 0} ; [ DW_TAG_subroutine_type ]
!879 = metadata !{null, metadata !876, metadata !880}
!880 = metadata !{i32 786448, null, null, null, i32 0, i64 0, i64 0, i64 0, i32 0, metadata !881} ; [ DW_TAG_reference_type ]
!881 = metadata !{i32 786470, null, metadata !"", null, i32 0, i64 0, i64 0, i64 0, i32 0, metadata !882} ; [ DW_TAG_const_type ]
!882 = metadata !{i32 786434, null, metadata !"ap_int_base<33, true, true>", metadata !425, i32 1495, i64 64, i64 64, i32 0, i32 0, null, metadata !883, i32 0, null, metadata !1179} ; [ DW_TAG_class_type ]
!883 = metadata !{metadata !884, metadata !895, metadata !899, metadata !905, metadata !911, metadata !914, metadata !917, metadata !920, metadata !923, metadata !926, metadata !929, metadata !932, metadata !935, metadata !938, metadata !941, metadata !944, metadata !947, metadata !950, metadata !953, metadata !956, metadata !959, metadata !963, metadata !966, metadata !969, metadata !970, metadata !974, metadata !977, metadata !980, metadata !983, metadata !986, metadata !989, metadata !992, metadata !995, metadata !998, metadata !1001, metadata !1004, metadata !1007, metadata !1016, metadata !1019, metadata !1022, metadata !1025, metadata !1028, metadata !1031, metadata !1034, metadata !1037, metadata !1040, metadata !1043, metadata !1046, metadata !1049, metadata !1052, metadata !1053, metadata !1057, metadata !1060, metadata !1061, metadata !1062, metadata !1063, metadata !1064, metadata !1065, metadata !1068, metadata !1069, metadata !1072, metadata !1073, metadata !1074, metadata !1075, metadata !1076, metadata !1077, metadata !1080, metadata !1081, metadata !1082, metadata !1085, metadata !1086, metadata !1089, metadata !1090, metadata !1098, metadata !1104, metadata !1105, metadata !1108, metadata !1109, metadata !1146, metadata !1147, metadata !1148, metadata !1149, metadata !1152, metadata !1153, metadata !1154, metadata !1155, metadata !1156, metadata !1157, metadata !1158, metadata !1159, metadata !1160, metadata !1161, metadata !1162, metadata !1163, metadata !1173, metadata !1176}
!884 = metadata !{i32 786460, metadata !882, null, metadata !425, i32 0, i64 0, i64 0, i64 0, i32 0, metadata !885} ; [ DW_TAG_inheritance ]
!885 = metadata !{i32 786434, null, metadata !"ssdm_int<33 + 1024 * 0, true>", metadata !429, i32 67, i64 64, i64 64, i32 0, i32 0, null, metadata !886, i32 0, null, metadata !893} ; [ DW_TAG_class_type ]
!886 = metadata !{metadata !887, metadata !889}
!887 = metadata !{i32 786445, metadata !885, metadata !"V", metadata !429, i32 67, i64 33, i64 64, i64 0, i32 0, metadata !888} ; [ DW_TAG_member ]
!888 = metadata !{i32 786468, null, metadata !"int33", null, i32 0, i64 33, i64 64, i64 0, i32 0, i32 5} ; [ DW_TAG_base_type ]
!889 = metadata !{i32 786478, i32 0, metadata !885, metadata !"ssdm_int", metadata !"ssdm_int", metadata !"", metadata !429, i32 67, metadata !890, i1 false, i1 false, i32 0, i32 0, null, i32 256, i1 false, null, null, i32 0, metadata !295, i32 67} ; [ DW_TAG_subprogram ]
!890 = metadata !{i32 786453, i32 0, metadata !"", i32 0, i32 0, i64 0, i64 0, i64 0, i32 0, null, metadata !891, i32 0, i32 0} ; [ DW_TAG_subroutine_type ]
!891 = metadata !{null, metadata !892}
!892 = metadata !{i32 786447, i32 0, metadata !"", i32 0, i32 0, i64 64, i64 64, i64 0, i32 64, metadata !885} ; [ DW_TAG_pointer_type ]
!893 = metadata !{metadata !894, metadata !669}
!894 = metadata !{i32 786480, null, metadata !"_AP_N", metadata !439, i64 33, null, i32 0, i32 0} ; [ DW_TAG_template_value_parameter ]
!895 = metadata !{i32 786478, i32 0, metadata !882, metadata !"ap_int_base", metadata !"ap_int_base", metadata !"", metadata !425, i32 1536, metadata !896, i1 false, i1 false, i32 0, i32 0, null, i32 256, i1 false, null, null, i32 0, metadata !295, i32 1536} ; [ DW_TAG_subprogram ]
!896 = metadata !{i32 786453, i32 0, metadata !"", i32 0, i32 0, i64 0, i64 0, i64 0, i32 0, null, metadata !897, i32 0, i32 0} ; [ DW_TAG_subroutine_type ]
!897 = metadata !{null, metadata !898}
!898 = metadata !{i32 786447, i32 0, metadata !"", i32 0, i32 0, i64 64, i64 64, i64 0, i32 64, metadata !882} ; [ DW_TAG_pointer_type ]
!899 = metadata !{i32 786478, i32 0, metadata !882, metadata !"ap_int_base<33, true>", metadata !"ap_int_base<33, true>", metadata !"", metadata !425, i32 1548, metadata !900, i1 false, i1 false, i32 0, i32 0, null, i32 256, i1 false, null, metadata !902, i32 0, metadata !295, i32 1548} ; [ DW_TAG_subprogram ]
!900 = metadata !{i32 786453, i32 0, metadata !"", i32 0, i32 0, i64 0, i64 0, i64 0, i32 0, null, metadata !901, i32 0, i32 0} ; [ DW_TAG_subroutine_type ]
!901 = metadata !{null, metadata !898, metadata !880}
!902 = metadata !{metadata !903, metadata !904}
!903 = metadata !{i32 786480, null, metadata !"_AP_W2", metadata !439, i64 33, null, i32 0, i32 0} ; [ DW_TAG_template_value_parameter ]
!904 = metadata !{i32 786480, null, metadata !"_AP_S2", metadata !309, i64 1, null, i32 0, i32 0} ; [ DW_TAG_template_value_parameter ]
!905 = metadata !{i32 786478, i32 0, metadata !882, metadata !"ap_int_base<33, true>", metadata !"ap_int_base<33, true>", metadata !"", metadata !425, i32 1551, metadata !906, i1 false, i1 false, i32 0, i32 0, null, i32 256, i1 false, null, metadata !902, i32 0, metadata !295, i32 1551} ; [ DW_TAG_subprogram ]
!906 = metadata !{i32 786453, i32 0, metadata !"", i32 0, i32 0, i64 0, i64 0, i64 0, i32 0, null, metadata !907, i32 0, i32 0} ; [ DW_TAG_subroutine_type ]
!907 = metadata !{null, metadata !898, metadata !908}
!908 = metadata !{i32 786448, null, null, null, i32 0, i64 0, i64 0, i64 0, i32 0, metadata !909} ; [ DW_TAG_reference_type ]
!909 = metadata !{i32 786470, null, metadata !"", null, i32 0, i64 0, i64 0, i64 0, i32 0, metadata !910} ; [ DW_TAG_const_type ]
!910 = metadata !{i32 786485, null, metadata !"", null, i32 0, i64 0, i64 0, i64 0, i32 0, metadata !882} ; [ DW_TAG_volatile_type ]
!911 = metadata !{i32 786478, i32 0, metadata !882, metadata !"ap_int_base", metadata !"ap_int_base", metadata !"", metadata !425, i32 1558, metadata !912, i1 false, i1 false, i32 0, i32 0, null, i32 384, i1 false, null, null, i32 0, metadata !295, i32 1558} ; [ DW_TAG_subprogram ]
!912 = metadata !{i32 786453, i32 0, metadata !"", i32 0, i32 0, i64 0, i64 0, i64 0, i32 0, null, metadata !913, i32 0, i32 0} ; [ DW_TAG_subroutine_type ]
!913 = metadata !{null, metadata !898, metadata !309}
!914 = metadata !{i32 786478, i32 0, metadata !882, metadata !"ap_int_base", metadata !"ap_int_base", metadata !"", metadata !425, i32 1559, metadata !915, i1 false, i1 false, i32 0, i32 0, null, i32 384, i1 false, null, null, i32 0, metadata !295, i32 1559} ; [ DW_TAG_subprogram ]
!915 = metadata !{i32 786453, i32 0, metadata !"", i32 0, i32 0, i64 0, i64 0, i64 0, i32 0, null, metadata !916, i32 0, i32 0} ; [ DW_TAG_subroutine_type ]
!916 = metadata !{null, metadata !898, metadata !465}
!917 = metadata !{i32 786478, i32 0, metadata !882, metadata !"ap_int_base", metadata !"ap_int_base", metadata !"", metadata !425, i32 1560, metadata !918, i1 false, i1 false, i32 0, i32 0, null, i32 384, i1 false, null, null, i32 0, metadata !295, i32 1560} ; [ DW_TAG_subprogram ]
!918 = metadata !{i32 786453, i32 0, metadata !"", i32 0, i32 0, i64 0, i64 0, i64 0, i32 0, null, metadata !919, i32 0, i32 0} ; [ DW_TAG_subroutine_type ]
!919 = metadata !{null, metadata !898, metadata !469}
!920 = metadata !{i32 786478, i32 0, metadata !882, metadata !"ap_int_base", metadata !"ap_int_base", metadata !"", metadata !425, i32 1561, metadata !921, i1 false, i1 false, i32 0, i32 0, null, i32 384, i1 false, null, null, i32 0, metadata !295, i32 1561} ; [ DW_TAG_subprogram ]
!921 = metadata !{i32 786453, i32 0, metadata !"", i32 0, i32 0, i64 0, i64 0, i64 0, i32 0, null, metadata !922, i32 0, i32 0} ; [ DW_TAG_subroutine_type ]
!922 = metadata !{null, metadata !898, metadata !473}
!923 = metadata !{i32 786478, i32 0, metadata !882, metadata !"ap_int_base", metadata !"ap_int_base", metadata !"", metadata !425, i32 1562, metadata !924, i1 false, i1 false, i32 0, i32 0, null, i32 384, i1 false, null, null, i32 0, metadata !295, i32 1562} ; [ DW_TAG_subprogram ]
!924 = metadata !{i32 786453, i32 0, metadata !"", i32 0, i32 0, i64 0, i64 0, i64 0, i32 0, null, metadata !925, i32 0, i32 0} ; [ DW_TAG_subroutine_type ]
!925 = metadata !{null, metadata !898, metadata !477}
!926 = metadata !{i32 786478, i32 0, metadata !882, metadata !"ap_int_base", metadata !"ap_int_base", metadata !"", metadata !425, i32 1563, metadata !927, i1 false, i1 false, i32 0, i32 0, null, i32 384, i1 false, null, null, i32 0, metadata !295, i32 1563} ; [ DW_TAG_subprogram ]
!927 = metadata !{i32 786453, i32 0, metadata !"", i32 0, i32 0, i64 0, i64 0, i64 0, i32 0, null, metadata !928, i32 0, i32 0} ; [ DW_TAG_subroutine_type ]
!928 = metadata !{null, metadata !898, metadata !439}
!929 = metadata !{i32 786478, i32 0, metadata !882, metadata !"ap_int_base", metadata !"ap_int_base", metadata !"", metadata !425, i32 1564, metadata !930, i1 false, i1 false, i32 0, i32 0, null, i32 384, i1 false, null, null, i32 0, metadata !295, i32 1564} ; [ DW_TAG_subprogram ]
!930 = metadata !{i32 786453, i32 0, metadata !"", i32 0, i32 0, i64 0, i64 0, i64 0, i32 0, null, metadata !931, i32 0, i32 0} ; [ DW_TAG_subroutine_type ]
!931 = metadata !{null, metadata !898, metadata !484}
!932 = metadata !{i32 786478, i32 0, metadata !882, metadata !"ap_int_base", metadata !"ap_int_base", metadata !"", metadata !425, i32 1565, metadata !933, i1 false, i1 false, i32 0, i32 0, null, i32 384, i1 false, null, null, i32 0, metadata !295, i32 1565} ; [ DW_TAG_subprogram ]
!933 = metadata !{i32 786453, i32 0, metadata !"", i32 0, i32 0, i64 0, i64 0, i64 0, i32 0, null, metadata !934, i32 0, i32 0} ; [ DW_TAG_subroutine_type ]
!934 = metadata !{null, metadata !898, metadata !488}
!935 = metadata !{i32 786478, i32 0, metadata !882, metadata !"ap_int_base", metadata !"ap_int_base", metadata !"", metadata !425, i32 1566, metadata !936, i1 false, i1 false, i32 0, i32 0, null, i32 384, i1 false, null, null, i32 0, metadata !295, i32 1566} ; [ DW_TAG_subprogram ]
!936 = metadata !{i32 786453, i32 0, metadata !"", i32 0, i32 0, i64 0, i64 0, i64 0, i32 0, null, metadata !937, i32 0, i32 0} ; [ DW_TAG_subroutine_type ]
!937 = metadata !{null, metadata !898, metadata !492}
!938 = metadata !{i32 786478, i32 0, metadata !882, metadata !"ap_int_base", metadata !"ap_int_base", metadata !"", metadata !425, i32 1567, metadata !939, i1 false, i1 false, i32 0, i32 0, null, i32 384, i1 false, null, null, i32 0, metadata !295, i32 1567} ; [ DW_TAG_subprogram ]
!939 = metadata !{i32 786453, i32 0, metadata !"", i32 0, i32 0, i64 0, i64 0, i64 0, i32 0, null, metadata !940, i32 0, i32 0} ; [ DW_TAG_subroutine_type ]
!940 = metadata !{null, metadata !898, metadata !496}
!941 = metadata !{i32 786478, i32 0, metadata !882, metadata !"ap_int_base", metadata !"ap_int_base", metadata !"", metadata !425, i32 1568, metadata !942, i1 false, i1 false, i32 0, i32 0, null, i32 384, i1 false, null, null, i32 0, metadata !295, i32 1568} ; [ DW_TAG_subprogram ]
!942 = metadata !{i32 786453, i32 0, metadata !"", i32 0, i32 0, i64 0, i64 0, i64 0, i32 0, null, metadata !943, i32 0, i32 0} ; [ DW_TAG_subroutine_type ]
!943 = metadata !{null, metadata !898, metadata !501}
!944 = metadata !{i32 786478, i32 0, metadata !882, metadata !"ap_int_base", metadata !"ap_int_base", metadata !"", metadata !425, i32 1569, metadata !945, i1 false, i1 false, i32 0, i32 0, null, i32 384, i1 false, null, null, i32 0, metadata !295, i32 1569} ; [ DW_TAG_subprogram ]
!945 = metadata !{i32 786453, i32 0, metadata !"", i32 0, i32 0, i64 0, i64 0, i64 0, i32 0, null, metadata !946, i32 0, i32 0} ; [ DW_TAG_subroutine_type ]
!946 = metadata !{null, metadata !898, metadata !506}
!947 = metadata !{i32 786478, i32 0, metadata !882, metadata !"ap_int_base", metadata !"ap_int_base", metadata !"", metadata !425, i32 1570, metadata !948, i1 false, i1 false, i32 0, i32 0, null, i32 384, i1 false, null, null, i32 0, metadata !295, i32 1570} ; [ DW_TAG_subprogram ]
!948 = metadata !{i32 786453, i32 0, metadata !"", i32 0, i32 0, i64 0, i64 0, i64 0, i32 0, null, metadata !949, i32 0, i32 0} ; [ DW_TAG_subroutine_type ]
!949 = metadata !{null, metadata !898, metadata !511}
!950 = metadata !{i32 786478, i32 0, metadata !882, metadata !"ap_int_base", metadata !"ap_int_base", metadata !"", metadata !425, i32 1571, metadata !951, i1 false, i1 false, i32 0, i32 0, null, i32 384, i1 false, null, null, i32 0, metadata !295, i32 1571} ; [ DW_TAG_subprogram ]
!951 = metadata !{i32 786453, i32 0, metadata !"", i32 0, i32 0, i64 0, i64 0, i64 0, i32 0, null, metadata !952, i32 0, i32 0} ; [ DW_TAG_subroutine_type ]
!952 = metadata !{null, metadata !898, metadata !515}
!953 = metadata !{i32 786478, i32 0, metadata !882, metadata !"ap_int_base", metadata !"ap_int_base", metadata !"", metadata !425, i32 1598, metadata !954, i1 false, i1 false, i32 0, i32 0, null, i32 256, i1 false, null, null, i32 0, metadata !295, i32 1598} ; [ DW_TAG_subprogram ]
!954 = metadata !{i32 786453, i32 0, metadata !"", i32 0, i32 0, i64 0, i64 0, i64 0, i32 0, null, metadata !955, i32 0, i32 0} ; [ DW_TAG_subroutine_type ]
!955 = metadata !{null, metadata !898, metadata !338}
!956 = metadata !{i32 786478, i32 0, metadata !882, metadata !"ap_int_base", metadata !"ap_int_base", metadata !"", metadata !425, i32 1605, metadata !957, i1 false, i1 false, i32 0, i32 0, null, i32 256, i1 false, null, null, i32 0, metadata !295, i32 1605} ; [ DW_TAG_subprogram ]
!957 = metadata !{i32 786453, i32 0, metadata !"", i32 0, i32 0, i64 0, i64 0, i64 0, i32 0, null, metadata !958, i32 0, i32 0} ; [ DW_TAG_subroutine_type ]
!958 = metadata !{null, metadata !898, metadata !338, metadata !465}
!959 = metadata !{i32 786478, i32 0, metadata !882, metadata !"read", metadata !"read", metadata !"_ZNV11ap_int_baseILi33ELb1ELb1EE4readEv", metadata !425, i32 1632, metadata !960, i1 false, i1 false, i32 0, i32 0, null, i32 256, i1 false, null, null, i32 0, metadata !295, i32 1632} ; [ DW_TAG_subprogram ]
!960 = metadata !{i32 786453, i32 0, metadata !"", i32 0, i32 0, i64 0, i64 0, i64 0, i32 0, null, metadata !961, i32 0, i32 0} ; [ DW_TAG_subroutine_type ]
!961 = metadata !{metadata !882, metadata !962}
!962 = metadata !{i32 786447, i32 0, metadata !"", i32 0, i32 0, i64 64, i64 64, i64 0, i32 64, metadata !910} ; [ DW_TAG_pointer_type ]
!963 = metadata !{i32 786478, i32 0, metadata !882, metadata !"write", metadata !"write", metadata !"_ZNV11ap_int_baseILi33ELb1ELb1EE5writeERKS0_", metadata !425, i32 1638, metadata !964, i1 false, i1 false, i32 0, i32 0, null, i32 256, i1 false, null, null, i32 0, metadata !295, i32 1638} ; [ DW_TAG_subprogram ]
!964 = metadata !{i32 786453, i32 0, metadata !"", i32 0, i32 0, i64 0, i64 0, i64 0, i32 0, null, metadata !965, i32 0, i32 0} ; [ DW_TAG_subroutine_type ]
!965 = metadata !{null, metadata !962, metadata !880}
!966 = metadata !{i32 786478, i32 0, metadata !882, metadata !"operator=", metadata !"operator=", metadata !"_ZNV11ap_int_baseILi33ELb1ELb1EEaSERVKS0_", metadata !425, i32 1650, metadata !967, i1 false, i1 false, i32 0, i32 0, null, i32 256, i1 false, null, null, i32 0, metadata !295, i32 1650} ; [ DW_TAG_subprogram ]
!967 = metadata !{i32 786453, i32 0, metadata !"", i32 0, i32 0, i64 0, i64 0, i64 0, i32 0, null, metadata !968, i32 0, i32 0} ; [ DW_TAG_subroutine_type ]
!968 = metadata !{null, metadata !962, metadata !908}
!969 = metadata !{i32 786478, i32 0, metadata !882, metadata !"operator=", metadata !"operator=", metadata !"_ZNV11ap_int_baseILi33ELb1ELb1EEaSERKS0_", metadata !425, i32 1659, metadata !964, i1 false, i1 false, i32 0, i32 0, null, i32 256, i1 false, null, null, i32 0, metadata !295, i32 1659} ; [ DW_TAG_subprogram ]
!970 = metadata !{i32 786478, i32 0, metadata !882, metadata !"operator=", metadata !"operator=", metadata !"_ZN11ap_int_baseILi33ELb1ELb1EEaSERVKS0_", metadata !425, i32 1682, metadata !971, i1 false, i1 false, i32 0, i32 0, null, i32 256, i1 false, null, null, i32 0, metadata !295, i32 1682} ; [ DW_TAG_subprogram ]
!971 = metadata !{i32 786453, i32 0, metadata !"", i32 0, i32 0, i64 0, i64 0, i64 0, i32 0, null, metadata !972, i32 0, i32 0} ; [ DW_TAG_subroutine_type ]
!972 = metadata !{metadata !973, metadata !898, metadata !908}
!973 = metadata !{i32 786448, null, null, null, i32 0, i64 0, i64 0, i64 0, i32 0, metadata !882} ; [ DW_TAG_reference_type ]
!974 = metadata !{i32 786478, i32 0, metadata !882, metadata !"operator=", metadata !"operator=", metadata !"_ZN11ap_int_baseILi33ELb1ELb1EEaSERKS0_", metadata !425, i32 1687, metadata !975, i1 false, i1 false, i32 0, i32 0, null, i32 256, i1 false, null, null, i32 0, metadata !295, i32 1687} ; [ DW_TAG_subprogram ]
!975 = metadata !{i32 786453, i32 0, metadata !"", i32 0, i32 0, i64 0, i64 0, i64 0, i32 0, null, metadata !976, i32 0, i32 0} ; [ DW_TAG_subroutine_type ]
!976 = metadata !{metadata !973, metadata !898, metadata !880}
!977 = metadata !{i32 786478, i32 0, metadata !882, metadata !"operator=", metadata !"operator=", metadata !"_ZN11ap_int_baseILi33ELb1ELb1EEaSEPKc", metadata !425, i32 1691, metadata !978, i1 false, i1 false, i32 0, i32 0, null, i32 256, i1 false, null, null, i32 0, metadata !295, i32 1691} ; [ DW_TAG_subprogram ]
!978 = metadata !{i32 786453, i32 0, metadata !"", i32 0, i32 0, i64 0, i64 0, i64 0, i32 0, null, metadata !979, i32 0, i32 0} ; [ DW_TAG_subroutine_type ]
!979 = metadata !{metadata !973, metadata !898, metadata !338}
!980 = metadata !{i32 786478, i32 0, metadata !882, metadata !"set", metadata !"set", metadata !"_ZN11ap_int_baseILi33ELb1ELb1EE3setEPKca", metadata !425, i32 1699, metadata !981, i1 false, i1 false, i32 0, i32 0, null, i32 256, i1 false, null, null, i32 0, metadata !295, i32 1699} ; [ DW_TAG_subprogram ]
!981 = metadata !{i32 786453, i32 0, metadata !"", i32 0, i32 0, i64 0, i64 0, i64 0, i32 0, null, metadata !982, i32 0, i32 0} ; [ DW_TAG_subroutine_type ]
!982 = metadata !{metadata !973, metadata !898, metadata !338, metadata !465}
!983 = metadata !{i32 786478, i32 0, metadata !882, metadata !"operator=", metadata !"operator=", metadata !"_ZN11ap_int_baseILi33ELb1ELb1EEaSEa", metadata !425, i32 1713, metadata !984, i1 false, i1 false, i32 0, i32 0, null, i32 256, i1 false, null, null, i32 0, metadata !295, i32 1713} ; [ DW_TAG_subprogram ]
!984 = metadata !{i32 786453, i32 0, metadata !"", i32 0, i32 0, i64 0, i64 0, i64 0, i32 0, null, metadata !985, i32 0, i32 0} ; [ DW_TAG_subroutine_type ]
!985 = metadata !{metadata !973, metadata !898, metadata !465}
!986 = metadata !{i32 786478, i32 0, metadata !882, metadata !"operator=", metadata !"operator=", metadata !"_ZN11ap_int_baseILi33ELb1ELb1EEaSEh", metadata !425, i32 1714, metadata !987, i1 false, i1 false, i32 0, i32 0, null, i32 256, i1 false, null, null, i32 0, metadata !295, i32 1714} ; [ DW_TAG_subprogram ]
!987 = metadata !{i32 786453, i32 0, metadata !"", i32 0, i32 0, i64 0, i64 0, i64 0, i32 0, null, metadata !988, i32 0, i32 0} ; [ DW_TAG_subroutine_type ]
!988 = metadata !{metadata !973, metadata !898, metadata !469}
!989 = metadata !{i32 786478, i32 0, metadata !882, metadata !"operator=", metadata !"operator=", metadata !"_ZN11ap_int_baseILi33ELb1ELb1EEaSEs", metadata !425, i32 1715, metadata !990, i1 false, i1 false, i32 0, i32 0, null, i32 256, i1 false, null, null, i32 0, metadata !295, i32 1715} ; [ DW_TAG_subprogram ]
!990 = metadata !{i32 786453, i32 0, metadata !"", i32 0, i32 0, i64 0, i64 0, i64 0, i32 0, null, metadata !991, i32 0, i32 0} ; [ DW_TAG_subroutine_type ]
!991 = metadata !{metadata !973, metadata !898, metadata !473}
!992 = metadata !{i32 786478, i32 0, metadata !882, metadata !"operator=", metadata !"operator=", metadata !"_ZN11ap_int_baseILi33ELb1ELb1EEaSEt", metadata !425, i32 1716, metadata !993, i1 false, i1 false, i32 0, i32 0, null, i32 256, i1 false, null, null, i32 0, metadata !295, i32 1716} ; [ DW_TAG_subprogram ]
!993 = metadata !{i32 786453, i32 0, metadata !"", i32 0, i32 0, i64 0, i64 0, i64 0, i32 0, null, metadata !994, i32 0, i32 0} ; [ DW_TAG_subroutine_type ]
!994 = metadata !{metadata !973, metadata !898, metadata !477}
!995 = metadata !{i32 786478, i32 0, metadata !882, metadata !"operator=", metadata !"operator=", metadata !"_ZN11ap_int_baseILi33ELb1ELb1EEaSEi", metadata !425, i32 1717, metadata !996, i1 false, i1 false, i32 0, i32 0, null, i32 256, i1 false, null, null, i32 0, metadata !295, i32 1717} ; [ DW_TAG_subprogram ]
!996 = metadata !{i32 786453, i32 0, metadata !"", i32 0, i32 0, i64 0, i64 0, i64 0, i32 0, null, metadata !997, i32 0, i32 0} ; [ DW_TAG_subroutine_type ]
!997 = metadata !{metadata !973, metadata !898, metadata !439}
!998 = metadata !{i32 786478, i32 0, metadata !882, metadata !"operator=", metadata !"operator=", metadata !"_ZN11ap_int_baseILi33ELb1ELb1EEaSEj", metadata !425, i32 1718, metadata !999, i1 false, i1 false, i32 0, i32 0, null, i32 256, i1 false, null, null, i32 0, metadata !295, i32 1718} ; [ DW_TAG_subprogram ]
!999 = metadata !{i32 786453, i32 0, metadata !"", i32 0, i32 0, i64 0, i64 0, i64 0, i32 0, null, metadata !1000, i32 0, i32 0} ; [ DW_TAG_subroutine_type ]
!1000 = metadata !{metadata !973, metadata !898, metadata !484}
!1001 = metadata !{i32 786478, i32 0, metadata !882, metadata !"operator=", metadata !"operator=", metadata !"_ZN11ap_int_baseILi33ELb1ELb1EEaSEx", metadata !425, i32 1719, metadata !1002, i1 false, i1 false, i32 0, i32 0, null, i32 256, i1 false, null, null, i32 0, metadata !295, i32 1719} ; [ DW_TAG_subprogram ]
!1002 = metadata !{i32 786453, i32 0, metadata !"", i32 0, i32 0, i64 0, i64 0, i64 0, i32 0, null, metadata !1003, i32 0, i32 0} ; [ DW_TAG_subroutine_type ]
!1003 = metadata !{metadata !973, metadata !898, metadata !496}
!1004 = metadata !{i32 786478, i32 0, metadata !882, metadata !"operator=", metadata !"operator=", metadata !"_ZN11ap_int_baseILi33ELb1ELb1EEaSEy", metadata !425, i32 1720, metadata !1005, i1 false, i1 false, i32 0, i32 0, null, i32 256, i1 false, null, null, i32 0, metadata !295, i32 1720} ; [ DW_TAG_subprogram ]
!1005 = metadata !{i32 786453, i32 0, metadata !"", i32 0, i32 0, i64 0, i64 0, i64 0, i32 0, null, metadata !1006, i32 0, i32 0} ; [ DW_TAG_subroutine_type ]
!1006 = metadata !{metadata !973, metadata !898, metadata !501}
!1007 = metadata !{i32 786478, i32 0, metadata !882, metadata !"operator long long", metadata !"operator long long", metadata !"_ZNK11ap_int_baseILi33ELb1ELb1EEcvxEv", metadata !425, i32 1758, metadata !1008, i1 false, i1 false, i32 0, i32 0, null, i32 256, i1 false, null, null, i32 0, metadata !295, i32 1758} ; [ DW_TAG_subprogram ]
!1008 = metadata !{i32 786453, i32 0, metadata !"", i32 0, i32 0, i64 0, i64 0, i64 0, i32 0, null, metadata !1009, i32 0, i32 0} ; [ DW_TAG_subroutine_type ]
!1009 = metadata !{metadata !1010, metadata !1015}
!1010 = metadata !{i32 786454, metadata !882, metadata !"RetType", metadata !425, i32 1500, i64 0, i64 0, i64 0, i32 0, metadata !1011} ; [ DW_TAG_typedef ]
!1011 = metadata !{i32 786454, metadata !1012, metadata !"Type", metadata !425, i32 1457, i64 0, i64 0, i64 0, i32 0, metadata !496} ; [ DW_TAG_typedef ]
!1012 = metadata !{i32 786434, null, metadata !"retval<5, true>", metadata !425, i32 1456, i64 8, i64 8, i32 0, i32 0, null, metadata !351, i32 0, null, metadata !1013} ; [ DW_TAG_class_type ]
!1013 = metadata !{metadata !1014, metadata !669}
!1014 = metadata !{i32 786480, null, metadata !"_AP_N", metadata !439, i64 5, null, i32 0, i32 0} ; [ DW_TAG_template_value_parameter ]
!1015 = metadata !{i32 786447, i32 0, metadata !"", i32 0, i32 0, i64 64, i64 64, i64 0, i32 64, metadata !881} ; [ DW_TAG_pointer_type ]
!1016 = metadata !{i32 786478, i32 0, metadata !882, metadata !"to_bool", metadata !"to_bool", metadata !"_ZNK11ap_int_baseILi33ELb1ELb1EE7to_boolEv", metadata !425, i32 1764, metadata !1017, i1 false, i1 false, i32 0, i32 0, null, i32 256, i1 false, null, null, i32 0, metadata !295, i32 1764} ; [ DW_TAG_subprogram ]
!1017 = metadata !{i32 786453, i32 0, metadata !"", i32 0, i32 0, i64 0, i64 0, i64 0, i32 0, null, metadata !1018, i32 0, i32 0} ; [ DW_TAG_subroutine_type ]
!1018 = metadata !{metadata !309, metadata !1015}
!1019 = metadata !{i32 786478, i32 0, metadata !882, metadata !"to_uchar", metadata !"to_uchar", metadata !"_ZNK11ap_int_baseILi33ELb1ELb1EE8to_ucharEv", metadata !425, i32 1765, metadata !1020, i1 false, i1 false, i32 0, i32 0, null, i32 256, i1 false, null, null, i32 0, metadata !295, i32 1765} ; [ DW_TAG_subprogram ]
!1020 = metadata !{i32 786453, i32 0, metadata !"", i32 0, i32 0, i64 0, i64 0, i64 0, i32 0, null, metadata !1021, i32 0, i32 0} ; [ DW_TAG_subroutine_type ]
!1021 = metadata !{metadata !469, metadata !1015}
!1022 = metadata !{i32 786478, i32 0, metadata !882, metadata !"to_char", metadata !"to_char", metadata !"_ZNK11ap_int_baseILi33ELb1ELb1EE7to_charEv", metadata !425, i32 1766, metadata !1023, i1 false, i1 false, i32 0, i32 0, null, i32 256, i1 false, null, null, i32 0, metadata !295, i32 1766} ; [ DW_TAG_subprogram ]
!1023 = metadata !{i32 786453, i32 0, metadata !"", i32 0, i32 0, i64 0, i64 0, i64 0, i32 0, null, metadata !1024, i32 0, i32 0} ; [ DW_TAG_subroutine_type ]
!1024 = metadata !{metadata !465, metadata !1015}
!1025 = metadata !{i32 786478, i32 0, metadata !882, metadata !"to_ushort", metadata !"to_ushort", metadata !"_ZNK11ap_int_baseILi33ELb1ELb1EE9to_ushortEv", metadata !425, i32 1767, metadata !1026, i1 false, i1 false, i32 0, i32 0, null, i32 256, i1 false, null, null, i32 0, metadata !295, i32 1767} ; [ DW_TAG_subprogram ]
!1026 = metadata !{i32 786453, i32 0, metadata !"", i32 0, i32 0, i64 0, i64 0, i64 0, i32 0, null, metadata !1027, i32 0, i32 0} ; [ DW_TAG_subroutine_type ]
!1027 = metadata !{metadata !477, metadata !1015}
!1028 = metadata !{i32 786478, i32 0, metadata !882, metadata !"to_short", metadata !"to_short", metadata !"_ZNK11ap_int_baseILi33ELb1ELb1EE8to_shortEv", metadata !425, i32 1768, metadata !1029, i1 false, i1 false, i32 0, i32 0, null, i32 256, i1 false, null, null, i32 0, metadata !295, i32 1768} ; [ DW_TAG_subprogram ]
!1029 = metadata !{i32 786453, i32 0, metadata !"", i32 0, i32 0, i64 0, i64 0, i64 0, i32 0, null, metadata !1030, i32 0, i32 0} ; [ DW_TAG_subroutine_type ]
!1030 = metadata !{metadata !473, metadata !1015}
!1031 = metadata !{i32 786478, i32 0, metadata !882, metadata !"to_int", metadata !"to_int", metadata !"_ZNK11ap_int_baseILi33ELb1ELb1EE6to_intEv", metadata !425, i32 1769, metadata !1032, i1 false, i1 false, i32 0, i32 0, null, i32 256, i1 false, null, null, i32 0, metadata !295, i32 1769} ; [ DW_TAG_subprogram ]
!1032 = metadata !{i32 786453, i32 0, metadata !"", i32 0, i32 0, i64 0, i64 0, i64 0, i32 0, null, metadata !1033, i32 0, i32 0} ; [ DW_TAG_subroutine_type ]
!1033 = metadata !{metadata !439, metadata !1015}
!1034 = metadata !{i32 786478, i32 0, metadata !882, metadata !"to_uint", metadata !"to_uint", metadata !"_ZNK11ap_int_baseILi33ELb1ELb1EE7to_uintEv", metadata !425, i32 1770, metadata !1035, i1 false, i1 false, i32 0, i32 0, null, i32 256, i1 false, null, null, i32 0, metadata !295, i32 1770} ; [ DW_TAG_subprogram ]
!1035 = metadata !{i32 786453, i32 0, metadata !"", i32 0, i32 0, i64 0, i64 0, i64 0, i32 0, null, metadata !1036, i32 0, i32 0} ; [ DW_TAG_subroutine_type ]
!1036 = metadata !{metadata !484, metadata !1015}
!1037 = metadata !{i32 786478, i32 0, metadata !882, metadata !"to_long", metadata !"to_long", metadata !"_ZNK11ap_int_baseILi33ELb1ELb1EE7to_longEv", metadata !425, i32 1771, metadata !1038, i1 false, i1 false, i32 0, i32 0, null, i32 256, i1 false, null, null, i32 0, metadata !295, i32 1771} ; [ DW_TAG_subprogram ]
!1038 = metadata !{i32 786453, i32 0, metadata !"", i32 0, i32 0, i64 0, i64 0, i64 0, i32 0, null, metadata !1039, i32 0, i32 0} ; [ DW_TAG_subroutine_type ]
!1039 = metadata !{metadata !488, metadata !1015}
!1040 = metadata !{i32 786478, i32 0, metadata !882, metadata !"to_ulong", metadata !"to_ulong", metadata !"_ZNK11ap_int_baseILi33ELb1ELb1EE8to_ulongEv", metadata !425, i32 1772, metadata !1041, i1 false, i1 false, i32 0, i32 0, null, i32 256, i1 false, null, null, i32 0, metadata !295, i32 1772} ; [ DW_TAG_subprogram ]
!1041 = metadata !{i32 786453, i32 0, metadata !"", i32 0, i32 0, i64 0, i64 0, i64 0, i32 0, null, metadata !1042, i32 0, i32 0} ; [ DW_TAG_subroutine_type ]
!1042 = metadata !{metadata !492, metadata !1015}
!1043 = metadata !{i32 786478, i32 0, metadata !882, metadata !"to_int64", metadata !"to_int64", metadata !"_ZNK11ap_int_baseILi33ELb1ELb1EE8to_int64Ev", metadata !425, i32 1773, metadata !1044, i1 false, i1 false, i32 0, i32 0, null, i32 256, i1 false, null, null, i32 0, metadata !295, i32 1773} ; [ DW_TAG_subprogram ]
!1044 = metadata !{i32 786453, i32 0, metadata !"", i32 0, i32 0, i64 0, i64 0, i64 0, i32 0, null, metadata !1045, i32 0, i32 0} ; [ DW_TAG_subroutine_type ]
!1045 = metadata !{metadata !496, metadata !1015}
!1046 = metadata !{i32 786478, i32 0, metadata !882, metadata !"to_uint64", metadata !"to_uint64", metadata !"_ZNK11ap_int_baseILi33ELb1ELb1EE9to_uint64Ev", metadata !425, i32 1774, metadata !1047, i1 false, i1 false, i32 0, i32 0, null, i32 256, i1 false, null, null, i32 0, metadata !295, i32 1774} ; [ DW_TAG_subprogram ]
!1047 = metadata !{i32 786453, i32 0, metadata !"", i32 0, i32 0, i64 0, i64 0, i64 0, i32 0, null, metadata !1048, i32 0, i32 0} ; [ DW_TAG_subroutine_type ]
!1048 = metadata !{metadata !501, metadata !1015}
!1049 = metadata !{i32 786478, i32 0, metadata !882, metadata !"to_double", metadata !"to_double", metadata !"_ZNK11ap_int_baseILi33ELb1ELb1EE9to_doubleEv", metadata !425, i32 1775, metadata !1050, i1 false, i1 false, i32 0, i32 0, null, i32 256, i1 false, null, null, i32 0, metadata !295, i32 1775} ; [ DW_TAG_subprogram ]
!1050 = metadata !{i32 786453, i32 0, metadata !"", i32 0, i32 0, i64 0, i64 0, i64 0, i32 0, null, metadata !1051, i32 0, i32 0} ; [ DW_TAG_subroutine_type ]
!1051 = metadata !{metadata !515, metadata !1015}
!1052 = metadata !{i32 786478, i32 0, metadata !882, metadata !"length", metadata !"length", metadata !"_ZNK11ap_int_baseILi33ELb1ELb1EE6lengthEv", metadata !425, i32 1789, metadata !1032, i1 false, i1 false, i32 0, i32 0, null, i32 256, i1 false, null, null, i32 0, metadata !295, i32 1789} ; [ DW_TAG_subprogram ]
!1053 = metadata !{i32 786478, i32 0, metadata !882, metadata !"length", metadata !"length", metadata !"_ZNVK11ap_int_baseILi33ELb1ELb1EE6lengthEv", metadata !425, i32 1790, metadata !1054, i1 false, i1 false, i32 0, i32 0, null, i32 256, i1 false, null, null, i32 0, metadata !295, i32 1790} ; [ DW_TAG_subprogram ]
!1054 = metadata !{i32 786453, i32 0, metadata !"", i32 0, i32 0, i64 0, i64 0, i64 0, i32 0, null, metadata !1055, i32 0, i32 0} ; [ DW_TAG_subroutine_type ]
!1055 = metadata !{metadata !439, metadata !1056}
!1056 = metadata !{i32 786447, i32 0, metadata !"", i32 0, i32 0, i64 64, i64 64, i64 0, i32 64, metadata !909} ; [ DW_TAG_pointer_type ]
!1057 = metadata !{i32 786478, i32 0, metadata !882, metadata !"reverse", metadata !"reverse", metadata !"_ZN11ap_int_baseILi33ELb1ELb1EE7reverseEv", metadata !425, i32 1795, metadata !1058, i1 false, i1 false, i32 0, i32 0, null, i32 256, i1 false, null, null, i32 0, metadata !295, i32 1795} ; [ DW_TAG_subprogram ]
!1058 = metadata !{i32 786453, i32 0, metadata !"", i32 0, i32 0, i64 0, i64 0, i64 0, i32 0, null, metadata !1059, i32 0, i32 0} ; [ DW_TAG_subroutine_type ]
!1059 = metadata !{metadata !973, metadata !898}
!1060 = metadata !{i32 786478, i32 0, metadata !882, metadata !"iszero", metadata !"iszero", metadata !"_ZNK11ap_int_baseILi33ELb1ELb1EE6iszeroEv", metadata !425, i32 1801, metadata !1017, i1 false, i1 false, i32 0, i32 0, null, i32 256, i1 false, null, null, i32 0, metadata !295, i32 1801} ; [ DW_TAG_subprogram ]
!1061 = metadata !{i32 786478, i32 0, metadata !882, metadata !"is_zero", metadata !"is_zero", metadata !"_ZNK11ap_int_baseILi33ELb1ELb1EE7is_zeroEv", metadata !425, i32 1806, metadata !1017, i1 false, i1 false, i32 0, i32 0, null, i32 256, i1 false, null, null, i32 0, metadata !295, i32 1806} ; [ DW_TAG_subprogram ]
!1062 = metadata !{i32 786478, i32 0, metadata !882, metadata !"sign", metadata !"sign", metadata !"_ZNK11ap_int_baseILi33ELb1ELb1EE4signEv", metadata !425, i32 1811, metadata !1017, i1 false, i1 false, i32 0, i32 0, null, i32 256, i1 false, null, null, i32 0, metadata !295, i32 1811} ; [ DW_TAG_subprogram ]
!1063 = metadata !{i32 786478, i32 0, metadata !882, metadata !"clear", metadata !"clear", metadata !"_ZN11ap_int_baseILi33ELb1ELb1EE5clearEi", metadata !425, i32 1819, metadata !927, i1 false, i1 false, i32 0, i32 0, null, i32 256, i1 false, null, null, i32 0, metadata !295, i32 1819} ; [ DW_TAG_subprogram ]
!1064 = metadata !{i32 786478, i32 0, metadata !882, metadata !"invert", metadata !"invert", metadata !"_ZN11ap_int_baseILi33ELb1ELb1EE6invertEi", metadata !425, i32 1825, metadata !927, i1 false, i1 false, i32 0, i32 0, null, i32 256, i1 false, null, null, i32 0, metadata !295, i32 1825} ; [ DW_TAG_subprogram ]
!1065 = metadata !{i32 786478, i32 0, metadata !882, metadata !"test", metadata !"test", metadata !"_ZNK11ap_int_baseILi33ELb1ELb1EE4testEi", metadata !425, i32 1833, metadata !1066, i1 false, i1 false, i32 0, i32 0, null, i32 256, i1 false, null, null, i32 0, metadata !295, i32 1833} ; [ DW_TAG_subprogram ]
!1066 = metadata !{i32 786453, i32 0, metadata !"", i32 0, i32 0, i64 0, i64 0, i64 0, i32 0, null, metadata !1067, i32 0, i32 0} ; [ DW_TAG_subroutine_type ]
!1067 = metadata !{metadata !309, metadata !1015, metadata !439}
!1068 = metadata !{i32 786478, i32 0, metadata !882, metadata !"set", metadata !"set", metadata !"_ZN11ap_int_baseILi33ELb1ELb1EE3setEi", metadata !425, i32 1839, metadata !927, i1 false, i1 false, i32 0, i32 0, null, i32 256, i1 false, null, null, i32 0, metadata !295, i32 1839} ; [ DW_TAG_subprogram ]
!1069 = metadata !{i32 786478, i32 0, metadata !882, metadata !"set", metadata !"set", metadata !"_ZN11ap_int_baseILi33ELb1ELb1EE3setEib", metadata !425, i32 1845, metadata !1070, i1 false, i1 false, i32 0, i32 0, null, i32 256, i1 false, null, null, i32 0, metadata !295, i32 1845} ; [ DW_TAG_subprogram ]
!1070 = metadata !{i32 786453, i32 0, metadata !"", i32 0, i32 0, i64 0, i64 0, i64 0, i32 0, null, metadata !1071, i32 0, i32 0} ; [ DW_TAG_subroutine_type ]
!1071 = metadata !{null, metadata !898, metadata !439, metadata !309}
!1072 = metadata !{i32 786478, i32 0, metadata !882, metadata !"lrotate", metadata !"lrotate", metadata !"_ZN11ap_int_baseILi33ELb1ELb1EE7lrotateEi", metadata !425, i32 1852, metadata !927, i1 false, i1 false, i32 0, i32 0, null, i32 256, i1 false, null, null, i32 0, metadata !295, i32 1852} ; [ DW_TAG_subprogram ]
!1073 = metadata !{i32 786478, i32 0, metadata !882, metadata !"rrotate", metadata !"rrotate", metadata !"_ZN11ap_int_baseILi33ELb1ELb1EE7rrotateEi", metadata !425, i32 1861, metadata !927, i1 false, i1 false, i32 0, i32 0, null, i32 256, i1 false, null, null, i32 0, metadata !295, i32 1861} ; [ DW_TAG_subprogram ]
!1074 = metadata !{i32 786478, i32 0, metadata !882, metadata !"set_bit", metadata !"set_bit", metadata !"_ZN11ap_int_baseILi33ELb1ELb1EE7set_bitEib", metadata !425, i32 1869, metadata !1070, i1 false, i1 false, i32 0, i32 0, null, i32 256, i1 false, null, null, i32 0, metadata !295, i32 1869} ; [ DW_TAG_subprogram ]
!1075 = metadata !{i32 786478, i32 0, metadata !882, metadata !"get_bit", metadata !"get_bit", metadata !"_ZNK11ap_int_baseILi33ELb1ELb1EE7get_bitEi", metadata !425, i32 1874, metadata !1066, i1 false, i1 false, i32 0, i32 0, null, i32 256, i1 false, null, null, i32 0, metadata !295, i32 1874} ; [ DW_TAG_subprogram ]
!1076 = metadata !{i32 786478, i32 0, metadata !882, metadata !"b_not", metadata !"b_not", metadata !"_ZN11ap_int_baseILi33ELb1ELb1EE5b_notEv", metadata !425, i32 1879, metadata !896, i1 false, i1 false, i32 0, i32 0, null, i32 256, i1 false, null, null, i32 0, metadata !295, i32 1879} ; [ DW_TAG_subprogram ]
!1077 = metadata !{i32 786478, i32 0, metadata !882, metadata !"countLeadingZeros", metadata !"countLeadingZeros", metadata !"_ZN11ap_int_baseILi33ELb1ELb1EE17countLeadingZerosEv", metadata !425, i32 1886, metadata !1078, i1 false, i1 false, i32 0, i32 0, null, i32 256, i1 false, null, null, i32 0, metadata !295, i32 1886} ; [ DW_TAG_subprogram ]
!1078 = metadata !{i32 786453, i32 0, metadata !"", i32 0, i32 0, i64 0, i64 0, i64 0, i32 0, null, metadata !1079, i32 0, i32 0} ; [ DW_TAG_subroutine_type ]
!1079 = metadata !{metadata !439, metadata !898}
!1080 = metadata !{i32 786478, i32 0, metadata !882, metadata !"operator++", metadata !"operator++", metadata !"_ZN11ap_int_baseILi33ELb1ELb1EEppEv", metadata !425, i32 1943, metadata !1058, i1 false, i1 false, i32 0, i32 0, null, i32 256, i1 false, null, null, i32 0, metadata !295, i32 1943} ; [ DW_TAG_subprogram ]
!1081 = metadata !{i32 786478, i32 0, metadata !882, metadata !"operator--", metadata !"operator--", metadata !"_ZN11ap_int_baseILi33ELb1ELb1EEmmEv", metadata !425, i32 1947, metadata !1058, i1 false, i1 false, i32 0, i32 0, null, i32 256, i1 false, null, null, i32 0, metadata !295, i32 1947} ; [ DW_TAG_subprogram ]
!1082 = metadata !{i32 786478, i32 0, metadata !882, metadata !"operator++", metadata !"operator++", metadata !"_ZN11ap_int_baseILi33ELb1ELb1EEppEi", metadata !425, i32 1955, metadata !1083, i1 false, i1 false, i32 0, i32 0, null, i32 256, i1 false, null, null, i32 0, metadata !295, i32 1955} ; [ DW_TAG_subprogram ]
!1083 = metadata !{i32 786453, i32 0, metadata !"", i32 0, i32 0, i64 0, i64 0, i64 0, i32 0, null, metadata !1084, i32 0, i32 0} ; [ DW_TAG_subroutine_type ]
!1084 = metadata !{metadata !881, metadata !898, metadata !439}
!1085 = metadata !{i32 786478, i32 0, metadata !882, metadata !"operator--", metadata !"operator--", metadata !"_ZN11ap_int_baseILi33ELb1ELb1EEmmEi", metadata !425, i32 1960, metadata !1083, i1 false, i1 false, i32 0, i32 0, null, i32 256, i1 false, null, null, i32 0, metadata !295, i32 1960} ; [ DW_TAG_subprogram ]
!1086 = metadata !{i32 786478, i32 0, metadata !882, metadata !"operator+", metadata !"operator+", metadata !"_ZNK11ap_int_baseILi33ELb1ELb1EEpsEv", metadata !425, i32 1969, metadata !1087, i1 false, i1 false, i32 0, i32 0, null, i32 256, i1 false, null, null, i32 0, metadata !295, i32 1969} ; [ DW_TAG_subprogram ]
!1087 = metadata !{i32 786453, i32 0, metadata !"", i32 0, i32 0, i64 0, i64 0, i64 0, i32 0, null, metadata !1088, i32 0, i32 0} ; [ DW_TAG_subroutine_type ]
!1088 = metadata !{metadata !882, metadata !1015}
!1089 = metadata !{i32 786478, i32 0, metadata !882, metadata !"operator!", metadata !"operator!", metadata !"_ZNK11ap_int_baseILi33ELb1ELb1EEntEv", metadata !425, i32 1975, metadata !1017, i1 false, i1 false, i32 0, i32 0, null, i32 256, i1 false, null, null, i32 0, metadata !295, i32 1975} ; [ DW_TAG_subprogram ]
!1090 = metadata !{i32 786478, i32 0, metadata !882, metadata !"operator-", metadata !"operator-", metadata !"_ZNK11ap_int_baseILi33ELb1ELb1EEngEv", metadata !425, i32 1980, metadata !1091, i1 false, i1 false, i32 0, i32 0, null, i32 256, i1 false, null, null, i32 0, metadata !295, i32 1980} ; [ DW_TAG_subprogram ]
!1091 = metadata !{i32 786453, i32 0, metadata !"", i32 0, i32 0, i64 0, i64 0, i64 0, i32 0, null, metadata !1092, i32 0, i32 0} ; [ DW_TAG_subroutine_type ]
!1092 = metadata !{metadata !1093, metadata !1015}
!1093 = metadata !{i32 786434, null, metadata !"ap_int_base<34, true, true>", metadata !1094, i32 74, i64 0, i64 0, i32 0, i32 4, null, null, i32 0, null, metadata !1095} ; [ DW_TAG_class_type ]
!1094 = metadata !{i32 786473, metadata !"/opt/xilinx/vivado/2018.2/Vivado/2018.2/common/technology/autopilot/ap_common.h", metadata !"/net/e/floupias001/FRACTALE/fractale/Fractale-It", null} ; [ DW_TAG_file_type ]
!1095 = metadata !{metadata !1096, metadata !669, metadata !1097}
!1096 = metadata !{i32 786480, null, metadata !"_AP_W", metadata !439, i64 34, null, i32 0, i32 0} ; [ DW_TAG_template_value_parameter ]
!1097 = metadata !{i32 786480, null, metadata !"_AP_C", metadata !309, i64 1, null, i32 0, i32 0} ; [ DW_TAG_template_value_parameter ]
!1098 = metadata !{i32 786478, i32 0, metadata !882, metadata !"range", metadata !"range", metadata !"_ZN11ap_int_baseILi33ELb1ELb1EE5rangeEii", metadata !425, i32 2110, metadata !1099, i1 false, i1 false, i32 0, i32 0, null, i32 256, i1 false, null, null, i32 0, metadata !295, i32 2110} ; [ DW_TAG_subprogram ]
!1099 = metadata !{i32 786453, i32 0, metadata !"", i32 0, i32 0, i64 0, i64 0, i64 0, i32 0, null, metadata !1100, i32 0, i32 0} ; [ DW_TAG_subroutine_type ]
!1100 = metadata !{metadata !1101, metadata !898, metadata !439, metadata !439}
!1101 = metadata !{i32 786434, null, metadata !"ap_range_ref<33, true>", metadata !425, i32 967, i64 0, i64 0, i32 0, i32 4, null, null, i32 0, null, metadata !1102} ; [ DW_TAG_class_type ]
!1102 = metadata !{metadata !1103, metadata !669}
!1103 = metadata !{i32 786480, null, metadata !"_AP_W", metadata !439, i64 33, null, i32 0, i32 0} ; [ DW_TAG_template_value_parameter ]
!1104 = metadata !{i32 786478, i32 0, metadata !882, metadata !"operator()", metadata !"operator()", metadata !"_ZN11ap_int_baseILi33ELb1ELb1EEclEii", metadata !425, i32 2116, metadata !1099, i1 false, i1 false, i32 0, i32 0, null, i32 256, i1 false, null, null, i32 0, metadata !295, i32 2116} ; [ DW_TAG_subprogram ]
!1105 = metadata !{i32 786478, i32 0, metadata !882, metadata !"range", metadata !"range", metadata !"_ZNK11ap_int_baseILi33ELb1ELb1EE5rangeEii", metadata !425, i32 2122, metadata !1106, i1 false, i1 false, i32 0, i32 0, null, i32 256, i1 false, null, null, i32 0, metadata !295, i32 2122} ; [ DW_TAG_subprogram ]
!1106 = metadata !{i32 786453, i32 0, metadata !"", i32 0, i32 0, i64 0, i64 0, i64 0, i32 0, null, metadata !1107, i32 0, i32 0} ; [ DW_TAG_subroutine_type ]
!1107 = metadata !{metadata !1101, metadata !1015, metadata !439, metadata !439}
!1108 = metadata !{i32 786478, i32 0, metadata !882, metadata !"operator()", metadata !"operator()", metadata !"_ZNK11ap_int_baseILi33ELb1ELb1EEclEii", metadata !425, i32 2128, metadata !1106, i1 false, i1 false, i32 0, i32 0, null, i32 256, i1 false, null, null, i32 0, metadata !295, i32 2128} ; [ DW_TAG_subprogram ]
!1109 = metadata !{i32 786478, i32 0, metadata !882, metadata !"operator[]", metadata !"operator[]", metadata !"_ZN11ap_int_baseILi33ELb1ELb1EEixEi", metadata !425, i32 2147, metadata !1110, i1 false, i1 false, i32 0, i32 0, null, i32 256, i1 false, null, null, i32 0, metadata !295, i32 2147} ; [ DW_TAG_subprogram ]
!1110 = metadata !{i32 786453, i32 0, metadata !"", i32 0, i32 0, i64 0, i64 0, i64 0, i32 0, null, metadata !1111, i32 0, i32 0} ; [ DW_TAG_subroutine_type ]
!1111 = metadata !{metadata !1112, metadata !898, metadata !439}
!1112 = metadata !{i32 786434, null, metadata !"ap_bit_ref<33, true>", metadata !425, i32 1291, i64 128, i64 64, i32 0, i32 0, null, metadata !1113, i32 0, null, metadata !1102} ; [ DW_TAG_class_type ]
!1113 = metadata !{metadata !1114, metadata !1115, metadata !1116, metadata !1122, metadata !1126, metadata !1130, metadata !1131, metadata !1135, metadata !1138, metadata !1139, metadata !1142, metadata !1143}
!1114 = metadata !{i32 786445, metadata !1112, metadata !"d_bv", metadata !425, i32 1292, i64 64, i64 64, i64 0, i32 0, metadata !973} ; [ DW_TAG_member ]
!1115 = metadata !{i32 786445, metadata !1112, metadata !"d_index", metadata !425, i32 1293, i64 32, i64 32, i64 64, i32 0, metadata !439} ; [ DW_TAG_member ]
!1116 = metadata !{i32 786478, i32 0, metadata !1112, metadata !"ap_bit_ref", metadata !"ap_bit_ref", metadata !"", metadata !425, i32 1296, metadata !1117, i1 false, i1 false, i32 0, i32 0, null, i32 256, i1 false, null, null, i32 0, metadata !295, i32 1296} ; [ DW_TAG_subprogram ]
!1117 = metadata !{i32 786453, i32 0, metadata !"", i32 0, i32 0, i64 0, i64 0, i64 0, i32 0, null, metadata !1118, i32 0, i32 0} ; [ DW_TAG_subroutine_type ]
!1118 = metadata !{null, metadata !1119, metadata !1120}
!1119 = metadata !{i32 786447, i32 0, metadata !"", i32 0, i32 0, i64 64, i64 64, i64 0, i32 64, metadata !1112} ; [ DW_TAG_pointer_type ]
!1120 = metadata !{i32 786448, null, null, null, i32 0, i64 0, i64 0, i64 0, i32 0, metadata !1121} ; [ DW_TAG_reference_type ]
!1121 = metadata !{i32 786470, null, metadata !"", null, i32 0, i64 0, i64 0, i64 0, i32 0, metadata !1112} ; [ DW_TAG_const_type ]
!1122 = metadata !{i32 786478, i32 0, metadata !1112, metadata !"ap_bit_ref", metadata !"ap_bit_ref", metadata !"", metadata !425, i32 1299, metadata !1123, i1 false, i1 false, i32 0, i32 0, null, i32 256, i1 false, null, null, i32 0, metadata !295, i32 1299} ; [ DW_TAG_subprogram ]
!1123 = metadata !{i32 786453, i32 0, metadata !"", i32 0, i32 0, i64 0, i64 0, i64 0, i32 0, null, metadata !1124, i32 0, i32 0} ; [ DW_TAG_subroutine_type ]
!1124 = metadata !{null, metadata !1119, metadata !1125, metadata !439}
!1125 = metadata !{i32 786447, null, metadata !"", null, i32 0, i64 64, i64 64, i64 0, i32 0, metadata !882} ; [ DW_TAG_pointer_type ]
!1126 = metadata !{i32 786478, i32 0, metadata !1112, metadata !"operator _Bool", metadata !"operator _Bool", metadata !"_ZNK10ap_bit_refILi33ELb1EEcvbEv", metadata !425, i32 1301, metadata !1127, i1 false, i1 false, i32 0, i32 0, null, i32 256, i1 false, null, null, i32 0, metadata !295, i32 1301} ; [ DW_TAG_subprogram ]
!1127 = metadata !{i32 786453, i32 0, metadata !"", i32 0, i32 0, i64 0, i64 0, i64 0, i32 0, null, metadata !1128, i32 0, i32 0} ; [ DW_TAG_subroutine_type ]
!1128 = metadata !{metadata !309, metadata !1129}
!1129 = metadata !{i32 786447, i32 0, metadata !"", i32 0, i32 0, i64 64, i64 64, i64 0, i32 64, metadata !1121} ; [ DW_TAG_pointer_type ]
!1130 = metadata !{i32 786478, i32 0, metadata !1112, metadata !"to_bool", metadata !"to_bool", metadata !"_ZNK10ap_bit_refILi33ELb1EE7to_boolEv", metadata !425, i32 1302, metadata !1127, i1 false, i1 false, i32 0, i32 0, null, i32 256, i1 false, null, null, i32 0, metadata !295, i32 1302} ; [ DW_TAG_subprogram ]
!1131 = metadata !{i32 786478, i32 0, metadata !1112, metadata !"operator=", metadata !"operator=", metadata !"_ZN10ap_bit_refILi33ELb1EEaSEy", metadata !425, i32 1304, metadata !1132, i1 false, i1 false, i32 0, i32 0, null, i32 256, i1 false, null, null, i32 0, metadata !295, i32 1304} ; [ DW_TAG_subprogram ]
!1132 = metadata !{i32 786453, i32 0, metadata !"", i32 0, i32 0, i64 0, i64 0, i64 0, i32 0, null, metadata !1133, i32 0, i32 0} ; [ DW_TAG_subroutine_type ]
!1133 = metadata !{metadata !1134, metadata !1119, metadata !502}
!1134 = metadata !{i32 786448, null, null, null, i32 0, i64 0, i64 0, i64 0, i32 0, metadata !1112} ; [ DW_TAG_reference_type ]
!1135 = metadata !{i32 786478, i32 0, metadata !1112, metadata !"operator=", metadata !"operator=", metadata !"_ZN10ap_bit_refILi33ELb1EEaSERKS0_", metadata !425, i32 1324, metadata !1136, i1 false, i1 false, i32 0, i32 0, null, i32 256, i1 false, null, null, i32 0, metadata !295, i32 1324} ; [ DW_TAG_subprogram ]
!1136 = metadata !{i32 786453, i32 0, metadata !"", i32 0, i32 0, i64 0, i64 0, i64 0, i32 0, null, metadata !1137, i32 0, i32 0} ; [ DW_TAG_subroutine_type ]
!1137 = metadata !{metadata !1134, metadata !1119, metadata !1120}
!1138 = metadata !{i32 786478, i32 0, metadata !1112, metadata !"get", metadata !"get", metadata !"_ZNK10ap_bit_refILi33ELb1EE3getEv", metadata !425, i32 1432, metadata !1127, i1 false, i1 false, i32 0, i32 0, null, i32 256, i1 false, null, null, i32 0, metadata !295, i32 1432} ; [ DW_TAG_subprogram ]
!1139 = metadata !{i32 786478, i32 0, metadata !1112, metadata !"get", metadata !"get", metadata !"_ZN10ap_bit_refILi33ELb1EE3getEv", metadata !425, i32 1436, metadata !1140, i1 false, i1 false, i32 0, i32 0, null, i32 256, i1 false, null, null, i32 0, metadata !295, i32 1436} ; [ DW_TAG_subprogram ]
!1140 = metadata !{i32 786453, i32 0, metadata !"", i32 0, i32 0, i64 0, i64 0, i64 0, i32 0, null, metadata !1141, i32 0, i32 0} ; [ DW_TAG_subroutine_type ]
!1141 = metadata !{metadata !309, metadata !1119}
!1142 = metadata !{i32 786478, i32 0, metadata !1112, metadata !"operator~", metadata !"operator~", metadata !"_ZNK10ap_bit_refILi33ELb1EEcoEv", metadata !425, i32 1445, metadata !1127, i1 false, i1 false, i32 0, i32 0, null, i32 256, i1 false, null, null, i32 0, metadata !295, i32 1445} ; [ DW_TAG_subprogram ]
!1143 = metadata !{i32 786478, i32 0, metadata !1112, metadata !"length", metadata !"length", metadata !"_ZNK10ap_bit_refILi33ELb1EE6lengthEv", metadata !425, i32 1450, metadata !1144, i1 false, i1 false, i32 0, i32 0, null, i32 256, i1 false, null, null, i32 0, metadata !295, i32 1450} ; [ DW_TAG_subprogram ]
!1144 = metadata !{i32 786453, i32 0, metadata !"", i32 0, i32 0, i64 0, i64 0, i64 0, i32 0, null, metadata !1145, i32 0, i32 0} ; [ DW_TAG_subroutine_type ]
!1145 = metadata !{metadata !439, metadata !1129}
!1146 = metadata !{i32 786478, i32 0, metadata !882, metadata !"operator[]", metadata !"operator[]", metadata !"_ZNK11ap_int_baseILi33ELb1ELb1EEixEi", metadata !425, i32 2161, metadata !1066, i1 false, i1 false, i32 0, i32 0, null, i32 256, i1 false, null, null, i32 0, metadata !295, i32 2161} ; [ DW_TAG_subprogram ]
!1147 = metadata !{i32 786478, i32 0, metadata !882, metadata !"bit", metadata !"bit", metadata !"_ZN11ap_int_baseILi33ELb1ELb1EE3bitEi", metadata !425, i32 2175, metadata !1110, i1 false, i1 false, i32 0, i32 0, null, i32 256, i1 false, null, null, i32 0, metadata !295, i32 2175} ; [ DW_TAG_subprogram ]
!1148 = metadata !{i32 786478, i32 0, metadata !882, metadata !"bit", metadata !"bit", metadata !"_ZNK11ap_int_baseILi33ELb1ELb1EE3bitEi", metadata !425, i32 2189, metadata !1066, i1 false, i1 false, i32 0, i32 0, null, i32 256, i1 false, null, null, i32 0, metadata !295, i32 2189} ; [ DW_TAG_subprogram ]
!1149 = metadata !{i32 786478, i32 0, metadata !882, metadata !"and_reduce", metadata !"and_reduce", metadata !"_ZN11ap_int_baseILi33ELb1ELb1EE10and_reduceEv", metadata !425, i32 2369, metadata !1150, i1 false, i1 false, i32 0, i32 0, null, i32 256, i1 false, null, null, i32 0, metadata !295, i32 2369} ; [ DW_TAG_subprogram ]
!1150 = metadata !{i32 786453, i32 0, metadata !"", i32 0, i32 0, i64 0, i64 0, i64 0, i32 0, null, metadata !1151, i32 0, i32 0} ; [ DW_TAG_subroutine_type ]
!1151 = metadata !{metadata !309, metadata !898}
!1152 = metadata !{i32 786478, i32 0, metadata !882, metadata !"nand_reduce", metadata !"nand_reduce", metadata !"_ZN11ap_int_baseILi33ELb1ELb1EE11nand_reduceEv", metadata !425, i32 2372, metadata !1150, i1 false, i1 false, i32 0, i32 0, null, i32 256, i1 false, null, null, i32 0, metadata !295, i32 2372} ; [ DW_TAG_subprogram ]
!1153 = metadata !{i32 786478, i32 0, metadata !882, metadata !"or_reduce", metadata !"or_reduce", metadata !"_ZN11ap_int_baseILi33ELb1ELb1EE9or_reduceEv", metadata !425, i32 2375, metadata !1150, i1 false, i1 false, i32 0, i32 0, null, i32 256, i1 false, null, null, i32 0, metadata !295, i32 2375} ; [ DW_TAG_subprogram ]
!1154 = metadata !{i32 786478, i32 0, metadata !882, metadata !"nor_reduce", metadata !"nor_reduce", metadata !"_ZN11ap_int_baseILi33ELb1ELb1EE10nor_reduceEv", metadata !425, i32 2378, metadata !1150, i1 false, i1 false, i32 0, i32 0, null, i32 256, i1 false, null, null, i32 0, metadata !295, i32 2378} ; [ DW_TAG_subprogram ]
!1155 = metadata !{i32 786478, i32 0, metadata !882, metadata !"xor_reduce", metadata !"xor_reduce", metadata !"_ZN11ap_int_baseILi33ELb1ELb1EE10xor_reduceEv", metadata !425, i32 2381, metadata !1150, i1 false, i1 false, i32 0, i32 0, null, i32 256, i1 false, null, null, i32 0, metadata !295, i32 2381} ; [ DW_TAG_subprogram ]
!1156 = metadata !{i32 786478, i32 0, metadata !882, metadata !"xnor_reduce", metadata !"xnor_reduce", metadata !"_ZN11ap_int_baseILi33ELb1ELb1EE11xnor_reduceEv", metadata !425, i32 2384, metadata !1150, i1 false, i1 false, i32 0, i32 0, null, i32 256, i1 false, null, null, i32 0, metadata !295, i32 2384} ; [ DW_TAG_subprogram ]
!1157 = metadata !{i32 786478, i32 0, metadata !882, metadata !"and_reduce", metadata !"and_reduce", metadata !"_ZNK11ap_int_baseILi33ELb1ELb1EE10and_reduceEv", metadata !425, i32 2388, metadata !1017, i1 false, i1 false, i32 0, i32 0, null, i32 256, i1 false, null, null, i32 0, metadata !295, i32 2388} ; [ DW_TAG_subprogram ]
!1158 = metadata !{i32 786478, i32 0, metadata !882, metadata !"nand_reduce", metadata !"nand_reduce", metadata !"_ZNK11ap_int_baseILi33ELb1ELb1EE11nand_reduceEv", metadata !425, i32 2391, metadata !1017, i1 false, i1 false, i32 0, i32 0, null, i32 256, i1 false, null, null, i32 0, metadata !295, i32 2391} ; [ DW_TAG_subprogram ]
!1159 = metadata !{i32 786478, i32 0, metadata !882, metadata !"or_reduce", metadata !"or_reduce", metadata !"_ZNK11ap_int_baseILi33ELb1ELb1EE9or_reduceEv", metadata !425, i32 2394, metadata !1017, i1 false, i1 false, i32 0, i32 0, null, i32 256, i1 false, null, null, i32 0, metadata !295, i32 2394} ; [ DW_TAG_subprogram ]
!1160 = metadata !{i32 786478, i32 0, metadata !882, metadata !"nor_reduce", metadata !"nor_reduce", metadata !"_ZNK11ap_int_baseILi33ELb1ELb1EE10nor_reduceEv", metadata !425, i32 2397, metadata !1017, i1 false, i1 false, i32 0, i32 0, null, i32 256, i1 false, null, null, i32 0, metadata !295, i32 2397} ; [ DW_TAG_subprogram ]
!1161 = metadata !{i32 786478, i32 0, metadata !882, metadata !"xor_reduce", metadata !"xor_reduce", metadata !"_ZNK11ap_int_baseILi33ELb1ELb1EE10xor_reduceEv", metadata !425, i32 2400, metadata !1017, i1 false, i1 false, i32 0, i32 0, null, i32 256, i1 false, null, null, i32 0, metadata !295, i32 2400} ; [ DW_TAG_subprogram ]
!1162 = metadata !{i32 786478, i32 0, metadata !882, metadata !"xnor_reduce", metadata !"xnor_reduce", metadata !"_ZNK11ap_int_baseILi33ELb1ELb1EE11xnor_reduceEv", metadata !425, i32 2403, metadata !1017, i1 false, i1 false, i32 0, i32 0, null, i32 256, i1 false, null, null, i32 0, metadata !295, i32 2403} ; [ DW_TAG_subprogram ]
!1163 = metadata !{i32 786478, i32 0, metadata !882, metadata !"to_string", metadata !"to_string", metadata !"_ZNK11ap_int_baseILi33ELb1ELb1EE9to_stringEPci8BaseModeb", metadata !425, i32 2410, metadata !1164, i1 false, i1 false, i32 0, i32 0, null, i32 256, i1 false, null, null, i32 0, metadata !295, i32 2410} ; [ DW_TAG_subprogram ]
!1164 = metadata !{i32 786453, i32 0, metadata !"", i32 0, i32 0, i64 0, i64 0, i64 0, i32 0, null, metadata !1165, i32 0, i32 0} ; [ DW_TAG_subroutine_type ]
!1165 = metadata !{null, metadata !1015, metadata !1166, metadata !439, metadata !1167, metadata !309}
!1166 = metadata !{i32 786447, null, metadata !"", null, i32 0, i64 64, i64 64, i64 0, i32 0, metadata !340} ; [ DW_TAG_pointer_type ]
!1167 = metadata !{i32 786436, null, metadata !"BaseMode", metadata !425, i32 677, i64 5, i64 8, i32 0, i32 0, null, metadata !1168, i32 0, i32 0} ; [ DW_TAG_enumeration_type ]
!1168 = metadata !{metadata !1169, metadata !1170, metadata !1171, metadata !1172}
!1169 = metadata !{i32 786472, metadata !"SC_BIN", i64 2} ; [ DW_TAG_enumerator ]
!1170 = metadata !{i32 786472, metadata !"SC_OCT", i64 8} ; [ DW_TAG_enumerator ]
!1171 = metadata !{i32 786472, metadata !"SC_DEC", i64 10} ; [ DW_TAG_enumerator ]
!1172 = metadata !{i32 786472, metadata !"SC_HEX", i64 16} ; [ DW_TAG_enumerator ]
!1173 = metadata !{i32 786478, i32 0, metadata !882, metadata !"to_string", metadata !"to_string", metadata !"_ZNK11ap_int_baseILi33ELb1ELb1EE9to_stringE8BaseModeb", metadata !425, i32 2437, metadata !1174, i1 false, i1 false, i32 0, i32 0, null, i32 256, i1 false, null, null, i32 0, metadata !295, i32 2437} ; [ DW_TAG_subprogram ]
!1174 = metadata !{i32 786453, i32 0, metadata !"", i32 0, i32 0, i64 0, i64 0, i64 0, i32 0, null, metadata !1175, i32 0, i32 0} ; [ DW_TAG_subroutine_type ]
!1175 = metadata !{metadata !1166, metadata !1015, metadata !1167, metadata !309}
!1176 = metadata !{i32 786478, i32 0, metadata !882, metadata !"to_string", metadata !"to_string", metadata !"_ZNK11ap_int_baseILi33ELb1ELb1EE9to_stringEab", metadata !425, i32 2441, metadata !1177, i1 false, i1 false, i32 0, i32 0, null, i32 256, i1 false, null, null, i32 0, metadata !295, i32 2441} ; [ DW_TAG_subprogram ]
!1177 = metadata !{i32 786453, i32 0, metadata !"", i32 0, i32 0, i64 0, i64 0, i64 0, i32 0, null, metadata !1178, i32 0, i32 0} ; [ DW_TAG_subroutine_type ]
!1178 = metadata !{metadata !1166, metadata !1015, metadata !465, metadata !309}
!1179 = metadata !{metadata !1103, metadata !669, metadata !1097}
!1180 = metadata !{i32 786478, i32 0, metadata !860, metadata !"ap_int_base<33, true>", metadata !"ap_int_base<33, true>", metadata !"", metadata !425, i32 1551, metadata !1181, i1 false, i1 false, i32 0, i32 0, null, i32 256, i1 false, null, metadata !902, i32 0, metadata !295, i32 1551} ; [ DW_TAG_subprogram ]
!1181 = metadata !{i32 786453, i32 0, metadata !"", i32 0, i32 0, i64 0, i64 0, i64 0, i32 0, null, metadata !1182, i32 0, i32 0} ; [ DW_TAG_subroutine_type ]
!1182 = metadata !{null, metadata !876, metadata !908}
!1183 = metadata !{i32 786478, i32 0, metadata !860, metadata !"ap_int_base", metadata !"ap_int_base", metadata !"", metadata !425, i32 1558, metadata !1184, i1 false, i1 false, i32 0, i32 0, null, i32 384, i1 false, null, null, i32 0, metadata !295, i32 1558} ; [ DW_TAG_subprogram ]
!1184 = metadata !{i32 786453, i32 0, metadata !"", i32 0, i32 0, i64 0, i64 0, i64 0, i32 0, null, metadata !1185, i32 0, i32 0} ; [ DW_TAG_subroutine_type ]
!1185 = metadata !{null, metadata !876, metadata !309}
!1186 = metadata !{i32 786478, i32 0, metadata !860, metadata !"ap_int_base", metadata !"ap_int_base", metadata !"", metadata !425, i32 1559, metadata !1187, i1 false, i1 false, i32 0, i32 0, null, i32 384, i1 false, null, null, i32 0, metadata !295, i32 1559} ; [ DW_TAG_subprogram ]
!1187 = metadata !{i32 786453, i32 0, metadata !"", i32 0, i32 0, i64 0, i64 0, i64 0, i32 0, null, metadata !1188, i32 0, i32 0} ; [ DW_TAG_subroutine_type ]
!1188 = metadata !{null, metadata !876, metadata !465}
